
ctarget:     file format elf64-x86-64


Disassembly of section .init:

0000000000400c60 <_init>:
  400c60:	48 83 ec 08          	sub    $0x8,%rsp
  400c64:	48 8b 05 8d 43 20 00 	mov    0x20438d(%rip),%rax        # 604ff8 <_DYNAMIC+0x1d0>
  400c6b:	48 85 c0             	test   %rax,%rax
  400c6e:	74 05                	je     400c75 <_init+0x15>
  400c70:	e8 2b 01 00 00       	callq  400da0 <__gmon_start__@plt>
  400c75:	48 83 c4 08          	add    $0x8,%rsp
  400c79:	c3                   	retq   

Disassembly of section .plt:

0000000000400c80 <strcasecmp@plt-0x10>:
  400c80:	ff 35 82 43 20 00    	pushq  0x204382(%rip)        # 605008 <_GLOBAL_OFFSET_TABLE_+0x8>
  400c86:	ff 25 84 43 20 00    	jmpq   *0x204384(%rip)        # 605010 <_GLOBAL_OFFSET_TABLE_+0x10>
  400c8c:	0f 1f 40 00          	nopl   0x0(%rax)

0000000000400c90 <strcasecmp@plt>:
  400c90:	ff 25 82 43 20 00    	jmpq   *0x204382(%rip)        # 605018 <_GLOBAL_OFFSET_TABLE_+0x18>
  400c96:	68 00 00 00 00       	pushq  $0x0
  400c9b:	e9 e0 ff ff ff       	jmpq   400c80 <_init+0x20>

0000000000400ca0 <__errno_location@plt>:
  400ca0:	ff 25 7a 43 20 00    	jmpq   *0x20437a(%rip)        # 605020 <_GLOBAL_OFFSET_TABLE_+0x20>
  400ca6:	68 01 00 00 00       	pushq  $0x1
  400cab:	e9 d0 ff ff ff       	jmpq   400c80 <_init+0x20>

0000000000400cb0 <srandom@plt>:
  400cb0:	ff 25 72 43 20 00    	jmpq   *0x204372(%rip)        # 605028 <_GLOBAL_OFFSET_TABLE_+0x28>
  400cb6:	68 02 00 00 00       	pushq  $0x2
  400cbb:	e9 c0 ff ff ff       	jmpq   400c80 <_init+0x20>

0000000000400cc0 <strncmp@plt>:
  400cc0:	ff 25 6a 43 20 00    	jmpq   *0x20436a(%rip)        # 605030 <_GLOBAL_OFFSET_TABLE_+0x30>
  400cc6:	68 03 00 00 00       	pushq  $0x3
  400ccb:	e9 b0 ff ff ff       	jmpq   400c80 <_init+0x20>

0000000000400cd0 <strcpy@plt>:
  400cd0:	ff 25 62 43 20 00    	jmpq   *0x204362(%rip)        # 605038 <_GLOBAL_OFFSET_TABLE_+0x38>
  400cd6:	68 04 00 00 00       	pushq  $0x4
  400cdb:	e9 a0 ff ff ff       	jmpq   400c80 <_init+0x20>

0000000000400ce0 <puts@plt>:
  400ce0:	ff 25 5a 43 20 00    	jmpq   *0x20435a(%rip)        # 605040 <_GLOBAL_OFFSET_TABLE_+0x40>
  400ce6:	68 05 00 00 00       	pushq  $0x5
  400ceb:	e9 90 ff ff ff       	jmpq   400c80 <_init+0x20>

0000000000400cf0 <write@plt>:
  400cf0:	ff 25 52 43 20 00    	jmpq   *0x204352(%rip)        # 605048 <_GLOBAL_OFFSET_TABLE_+0x48>
  400cf6:	68 06 00 00 00       	pushq  $0x6
  400cfb:	e9 80 ff ff ff       	jmpq   400c80 <_init+0x20>

0000000000400d00 <__stack_chk_fail@plt>:
  400d00:	ff 25 4a 43 20 00    	jmpq   *0x20434a(%rip)        # 605050 <_GLOBAL_OFFSET_TABLE_+0x50>
  400d06:	68 07 00 00 00       	pushq  $0x7
  400d0b:	e9 70 ff ff ff       	jmpq   400c80 <_init+0x20>

0000000000400d10 <mmap@plt>:
  400d10:	ff 25 42 43 20 00    	jmpq   *0x204342(%rip)        # 605058 <_GLOBAL_OFFSET_TABLE_+0x58>
  400d16:	68 08 00 00 00       	pushq  $0x8
  400d1b:	e9 60 ff ff ff       	jmpq   400c80 <_init+0x20>

0000000000400d20 <memset@plt>:
  400d20:	ff 25 3a 43 20 00    	jmpq   *0x20433a(%rip)        # 605060 <_GLOBAL_OFFSET_TABLE_+0x60>
  400d26:	68 09 00 00 00       	pushq  $0x9
  400d2b:	e9 50 ff ff ff       	jmpq   400c80 <_init+0x20>

0000000000400d30 <alarm@plt>:
  400d30:	ff 25 32 43 20 00    	jmpq   *0x204332(%rip)        # 605068 <_GLOBAL_OFFSET_TABLE_+0x68>
  400d36:	68 0a 00 00 00       	pushq  $0xa
  400d3b:	e9 40 ff ff ff       	jmpq   400c80 <_init+0x20>

0000000000400d40 <close@plt>:
  400d40:	ff 25 2a 43 20 00    	jmpq   *0x20432a(%rip)        # 605070 <_GLOBAL_OFFSET_TABLE_+0x70>
  400d46:	68 0b 00 00 00       	pushq  $0xb
  400d4b:	e9 30 ff ff ff       	jmpq   400c80 <_init+0x20>

0000000000400d50 <read@plt>:
  400d50:	ff 25 22 43 20 00    	jmpq   *0x204322(%rip)        # 605078 <_GLOBAL_OFFSET_TABLE_+0x78>
  400d56:	68 0c 00 00 00       	pushq  $0xc
  400d5b:	e9 20 ff ff ff       	jmpq   400c80 <_init+0x20>

0000000000400d60 <__libc_start_main@plt>:
  400d60:	ff 25 1a 43 20 00    	jmpq   *0x20431a(%rip)        # 605080 <_GLOBAL_OFFSET_TABLE_+0x80>
  400d66:	68 0d 00 00 00       	pushq  $0xd
  400d6b:	e9 10 ff ff ff       	jmpq   400c80 <_init+0x20>

0000000000400d70 <signal@plt>:
  400d70:	ff 25 12 43 20 00    	jmpq   *0x204312(%rip)        # 605088 <_GLOBAL_OFFSET_TABLE_+0x88>
  400d76:	68 0e 00 00 00       	pushq  $0xe
  400d7b:	e9 00 ff ff ff       	jmpq   400c80 <_init+0x20>

0000000000400d80 <gethostbyname@plt>:
  400d80:	ff 25 0a 43 20 00    	jmpq   *0x20430a(%rip)        # 605090 <_GLOBAL_OFFSET_TABLE_+0x90>
  400d86:	68 0f 00 00 00       	pushq  $0xf
  400d8b:	e9 f0 fe ff ff       	jmpq   400c80 <_init+0x20>

0000000000400d90 <__memmove_chk@plt>:
  400d90:	ff 25 02 43 20 00    	jmpq   *0x204302(%rip)        # 605098 <_GLOBAL_OFFSET_TABLE_+0x98>
  400d96:	68 10 00 00 00       	pushq  $0x10
  400d9b:	e9 e0 fe ff ff       	jmpq   400c80 <_init+0x20>

0000000000400da0 <__gmon_start__@plt>:
  400da0:	ff 25 fa 42 20 00    	jmpq   *0x2042fa(%rip)        # 6050a0 <_GLOBAL_OFFSET_TABLE_+0xa0>
  400da6:	68 11 00 00 00       	pushq  $0x11
  400dab:	e9 d0 fe ff ff       	jmpq   400c80 <_init+0x20>

0000000000400db0 <strtol@plt>:
  400db0:	ff 25 f2 42 20 00    	jmpq   *0x2042f2(%rip)        # 6050a8 <_GLOBAL_OFFSET_TABLE_+0xa8>
  400db6:	68 12 00 00 00       	pushq  $0x12
  400dbb:	e9 c0 fe ff ff       	jmpq   400c80 <_init+0x20>

0000000000400dc0 <memcpy@plt>:
  400dc0:	ff 25 ea 42 20 00    	jmpq   *0x2042ea(%rip)        # 6050b0 <_GLOBAL_OFFSET_TABLE_+0xb0>
  400dc6:	68 13 00 00 00       	pushq  $0x13
  400dcb:	e9 b0 fe ff ff       	jmpq   400c80 <_init+0x20>

0000000000400dd0 <time@plt>:
  400dd0:	ff 25 e2 42 20 00    	jmpq   *0x2042e2(%rip)        # 6050b8 <_GLOBAL_OFFSET_TABLE_+0xb8>
  400dd6:	68 14 00 00 00       	pushq  $0x14
  400ddb:	e9 a0 fe ff ff       	jmpq   400c80 <_init+0x20>

0000000000400de0 <random@plt>:
  400de0:	ff 25 da 42 20 00    	jmpq   *0x2042da(%rip)        # 6050c0 <_GLOBAL_OFFSET_TABLE_+0xc0>
  400de6:	68 15 00 00 00       	pushq  $0x15
  400deb:	e9 90 fe ff ff       	jmpq   400c80 <_init+0x20>

0000000000400df0 <_IO_getc@plt>:
  400df0:	ff 25 d2 42 20 00    	jmpq   *0x2042d2(%rip)        # 6050c8 <_GLOBAL_OFFSET_TABLE_+0xc8>
  400df6:	68 16 00 00 00       	pushq  $0x16
  400dfb:	e9 80 fe ff ff       	jmpq   400c80 <_init+0x20>

0000000000400e00 <__isoc99_sscanf@plt>:
  400e00:	ff 25 ca 42 20 00    	jmpq   *0x2042ca(%rip)        # 6050d0 <_GLOBAL_OFFSET_TABLE_+0xd0>
  400e06:	68 17 00 00 00       	pushq  $0x17
  400e0b:	e9 70 fe ff ff       	jmpq   400c80 <_init+0x20>

0000000000400e10 <munmap@plt>:
  400e10:	ff 25 c2 42 20 00    	jmpq   *0x2042c2(%rip)        # 6050d8 <_GLOBAL_OFFSET_TABLE_+0xd8>
  400e16:	68 18 00 00 00       	pushq  $0x18
  400e1b:	e9 60 fe ff ff       	jmpq   400c80 <_init+0x20>

0000000000400e20 <__printf_chk@plt>:
  400e20:	ff 25 ba 42 20 00    	jmpq   *0x2042ba(%rip)        # 6050e0 <_GLOBAL_OFFSET_TABLE_+0xe0>
  400e26:	68 19 00 00 00       	pushq  $0x19
  400e2b:	e9 50 fe ff ff       	jmpq   400c80 <_init+0x20>

0000000000400e30 <fopen@plt>:
  400e30:	ff 25 b2 42 20 00    	jmpq   *0x2042b2(%rip)        # 6050e8 <_GLOBAL_OFFSET_TABLE_+0xe8>
  400e36:	68 1a 00 00 00       	pushq  $0x1a
  400e3b:	e9 40 fe ff ff       	jmpq   400c80 <_init+0x20>

0000000000400e40 <getopt@plt>:
  400e40:	ff 25 aa 42 20 00    	jmpq   *0x2042aa(%rip)        # 6050f0 <_GLOBAL_OFFSET_TABLE_+0xf0>
  400e46:	68 1b 00 00 00       	pushq  $0x1b
  400e4b:	e9 30 fe ff ff       	jmpq   400c80 <_init+0x20>

0000000000400e50 <strtoul@plt>:
  400e50:	ff 25 a2 42 20 00    	jmpq   *0x2042a2(%rip)        # 6050f8 <_GLOBAL_OFFSET_TABLE_+0xf8>
  400e56:	68 1c 00 00 00       	pushq  $0x1c
  400e5b:	e9 20 fe ff ff       	jmpq   400c80 <_init+0x20>

0000000000400e60 <gethostname@plt>:
  400e60:	ff 25 9a 42 20 00    	jmpq   *0x20429a(%rip)        # 605100 <_GLOBAL_OFFSET_TABLE_+0x100>
  400e66:	68 1d 00 00 00       	pushq  $0x1d
  400e6b:	e9 10 fe ff ff       	jmpq   400c80 <_init+0x20>

0000000000400e70 <exit@plt>:
  400e70:	ff 25 92 42 20 00    	jmpq   *0x204292(%rip)        # 605108 <_GLOBAL_OFFSET_TABLE_+0x108>
  400e76:	68 1e 00 00 00       	pushq  $0x1e
  400e7b:	e9 00 fe ff ff       	jmpq   400c80 <_init+0x20>

0000000000400e80 <connect@plt>:
  400e80:	ff 25 8a 42 20 00    	jmpq   *0x20428a(%rip)        # 605110 <_GLOBAL_OFFSET_TABLE_+0x110>
  400e86:	68 1f 00 00 00       	pushq  $0x1f
  400e8b:	e9 f0 fd ff ff       	jmpq   400c80 <_init+0x20>

0000000000400e90 <__fprintf_chk@plt>:
  400e90:	ff 25 82 42 20 00    	jmpq   *0x204282(%rip)        # 605118 <_GLOBAL_OFFSET_TABLE_+0x118>
  400e96:	68 20 00 00 00       	pushq  $0x20
  400e9b:	e9 e0 fd ff ff       	jmpq   400c80 <_init+0x20>

0000000000400ea0 <__sprintf_chk@plt>:
  400ea0:	ff 25 7a 42 20 00    	jmpq   *0x20427a(%rip)        # 605120 <_GLOBAL_OFFSET_TABLE_+0x120>
  400ea6:	68 21 00 00 00       	pushq  $0x21
  400eab:	e9 d0 fd ff ff       	jmpq   400c80 <_init+0x20>

0000000000400eb0 <socket@plt>:
  400eb0:	ff 25 72 42 20 00    	jmpq   *0x204272(%rip)        # 605128 <_GLOBAL_OFFSET_TABLE_+0x128>
  400eb6:	68 22 00 00 00       	pushq  $0x22
  400ebb:	e9 c0 fd ff ff       	jmpq   400c80 <_init+0x20>

Disassembly of section .text:

0000000000400ec0 <_start>:
  400ec0:	31 ed                	xor    %ebp,%ebp
  400ec2:	49 89 d1             	mov    %rdx,%r9
  400ec5:	5e                   	pop    %rsi
  400ec6:	48 89 e2             	mov    %rsp,%rdx
  400ec9:	48 83 e4 f0          	and    $0xfffffffffffffff0,%rsp
  400ecd:	50                   	push   %rax
  400ece:	54                   	push   %rsp
  400ecf:	49 c7 c0 70 2e 40 00 	mov    $0x402e70,%r8
  400ed6:	48 c7 c1 00 2e 40 00 	mov    $0x402e00,%rcx
  400edd:	48 c7 c7 bf 11 40 00 	mov    $0x4011bf,%rdi
  400ee4:	e8 77 fe ff ff       	callq  400d60 <__libc_start_main@plt>
  400ee9:	f4                   	hlt    
  400eea:	66 0f 1f 44 00 00    	nopw   0x0(%rax,%rax,1)

0000000000400ef0 <deregister_tm_clones>:
  400ef0:	b8 97 71 60 00       	mov    $0x607197,%eax
  400ef5:	55                   	push   %rbp
  400ef6:	48 2d 90 71 60 00    	sub    $0x607190,%rax
  400efc:	48 83 f8 0e          	cmp    $0xe,%rax
  400f00:	48 89 e5             	mov    %rsp,%rbp
  400f03:	77 02                	ja     400f07 <deregister_tm_clones+0x17>
  400f05:	5d                   	pop    %rbp
  400f06:	c3                   	retq   
  400f07:	b8 00 00 00 00       	mov    $0x0,%eax
  400f0c:	48 85 c0             	test   %rax,%rax
  400f0f:	74 f4                	je     400f05 <deregister_tm_clones+0x15>
  400f11:	5d                   	pop    %rbp
  400f12:	bf 90 71 60 00       	mov    $0x607190,%edi
  400f17:	ff e0                	jmpq   *%rax
  400f19:	0f 1f 80 00 00 00 00 	nopl   0x0(%rax)

0000000000400f20 <register_tm_clones>:
  400f20:	b8 90 71 60 00       	mov    $0x607190,%eax
  400f25:	55                   	push   %rbp
  400f26:	48 2d 90 71 60 00    	sub    $0x607190,%rax
  400f2c:	48 c1 f8 03          	sar    $0x3,%rax
  400f30:	48 89 e5             	mov    %rsp,%rbp
  400f33:	48 89 c2             	mov    %rax,%rdx
  400f36:	48 c1 ea 3f          	shr    $0x3f,%rdx
  400f3a:	48 01 d0             	add    %rdx,%rax
  400f3d:	48 d1 f8             	sar    %rax
  400f40:	75 02                	jne    400f44 <register_tm_clones+0x24>
  400f42:	5d                   	pop    %rbp
  400f43:	c3                   	retq   
  400f44:	ba 00 00 00 00       	mov    $0x0,%edx
  400f49:	48 85 d2             	test   %rdx,%rdx
  400f4c:	74 f4                	je     400f42 <register_tm_clones+0x22>
  400f4e:	5d                   	pop    %rbp
  400f4f:	48 89 c6             	mov    %rax,%rsi
  400f52:	bf 90 71 60 00       	mov    $0x607190,%edi
  400f57:	ff e2                	jmpq   *%rdx
  400f59:	0f 1f 80 00 00 00 00 	nopl   0x0(%rax)

0000000000400f60 <__do_global_dtors_aux>:
  400f60:	80 3d 69 62 20 00 00 	cmpb   $0x0,0x206269(%rip)        # 6071d0 <completed.6973>
  400f67:	75 11                	jne    400f7a <__do_global_dtors_aux+0x1a>
  400f69:	55                   	push   %rbp
  400f6a:	48 89 e5             	mov    %rsp,%rbp
  400f6d:	e8 7e ff ff ff       	callq  400ef0 <deregister_tm_clones>
  400f72:	5d                   	pop    %rbp
  400f73:	c6 05 56 62 20 00 01 	movb   $0x1,0x206256(%rip)        # 6071d0 <completed.6973>
  400f7a:	f3 c3                	repz retq 
  400f7c:	0f 1f 40 00          	nopl   0x0(%rax)

0000000000400f80 <frame_dummy>:
  400f80:	48 83 3d 98 3e 20 00 	cmpq   $0x0,0x203e98(%rip)        # 604e20 <__JCR_END__>
  400f87:	00 
  400f88:	74 1e                	je     400fa8 <frame_dummy+0x28>
  400f8a:	b8 00 00 00 00       	mov    $0x0,%eax
  400f8f:	48 85 c0             	test   %rax,%rax
  400f92:	74 14                	je     400fa8 <frame_dummy+0x28>
  400f94:	55                   	push   %rbp
  400f95:	bf 20 4e 60 00       	mov    $0x604e20,%edi
  400f9a:	48 89 e5             	mov    %rsp,%rbp
  400f9d:	ff d0                	callq  *%rax
  400f9f:	5d                   	pop    %rbp
  400fa0:	e9 7b ff ff ff       	jmpq   400f20 <register_tm_clones>
  400fa5:	0f 1f 00             	nopl   (%rax)
  400fa8:	e9 73 ff ff ff       	jmpq   400f20 <register_tm_clones>
  400fad:	0f 1f 00             	nopl   (%rax)

0000000000400fb0 <usage>:
  400fb0:	48 83 ec 08          	sub    $0x8,%rsp
  400fb4:	48 89 fa             	mov    %rdi,%rdx
  400fb7:	83 3d 4a 62 20 00 00 	cmpl   $0x0,0x20624a(%rip)        # 607208 <is_checker>
  400fbe:	74 3e                	je     400ffe <usage+0x4e>
  400fc0:	be 88 2e 40 00       	mov    $0x402e88,%esi
  400fc5:	bf 01 00 00 00       	mov    $0x1,%edi
  400fca:	b8 00 00 00 00       	mov    $0x0,%eax
  400fcf:	e8 4c fe ff ff       	callq  400e20 <__printf_chk@plt>
  400fd4:	bf c0 2e 40 00       	mov    $0x402ec0,%edi
  400fd9:	e8 02 fd ff ff       	callq  400ce0 <puts@plt>
  400fde:	bf 38 30 40 00       	mov    $0x403038,%edi
  400fe3:	e8 f8 fc ff ff       	callq  400ce0 <puts@plt>
  400fe8:	bf e8 2e 40 00       	mov    $0x402ee8,%edi
  400fed:	e8 ee fc ff ff       	callq  400ce0 <puts@plt>
  400ff2:	bf 52 30 40 00       	mov    $0x403052,%edi
  400ff7:	e8 e4 fc ff ff       	callq  400ce0 <puts@plt>
  400ffc:	eb 32                	jmp    401030 <usage+0x80>
  400ffe:	be 6e 30 40 00       	mov    $0x40306e,%esi
  401003:	bf 01 00 00 00       	mov    $0x1,%edi
  401008:	b8 00 00 00 00       	mov    $0x0,%eax
  40100d:	e8 0e fe ff ff       	callq  400e20 <__printf_chk@plt>
  401012:	bf 10 2f 40 00       	mov    $0x402f10,%edi
  401017:	e8 c4 fc ff ff       	callq  400ce0 <puts@plt>
  40101c:	bf 38 2f 40 00       	mov    $0x402f38,%edi
  401021:	e8 ba fc ff ff       	callq  400ce0 <puts@plt>
  401026:	bf 8c 30 40 00       	mov    $0x40308c,%edi
  40102b:	e8 b0 fc ff ff       	callq  400ce0 <puts@plt>
  401030:	bf 00 00 00 00       	mov    $0x0,%edi
  401035:	e8 36 fe ff ff       	callq  400e70 <exit@plt>

000000000040103a <initialize_target>:
  40103a:	55                   	push   %rbp
  40103b:	53                   	push   %rbx
  40103c:	48 81 ec 18 21 00 00 	sub    $0x2118,%rsp
  401043:	89 f5                	mov    %esi,%ebp
  401045:	64 48 8b 04 25 28 00 	mov    %fs:0x28,%rax
  40104c:	00 00 
  40104e:	48 89 84 24 08 21 00 	mov    %rax,0x2108(%rsp)
  401055:	00 
  401056:	31 c0                	xor    %eax,%eax
  401058:	89 3d 9a 61 20 00    	mov    %edi,0x20619a(%rip)        # 6071f8 <check_level>
  40105e:	8b 3d 04 41 20 00    	mov    0x204104(%rip),%edi        # 605168 <target_id>
  401064:	e8 6a 1d 00 00       	callq  402dd3 <gencookie>
  401069:	89 05 95 61 20 00    	mov    %eax,0x206195(%rip)        # 607204 <cookie>
  40106f:	89 c7                	mov    %eax,%edi
  401071:	e8 5d 1d 00 00       	callq  402dd3 <gencookie>
  401076:	89 05 84 61 20 00    	mov    %eax,0x206184(%rip)        # 607200 <authkey>
  40107c:	8b 05 e6 40 20 00    	mov    0x2040e6(%rip),%eax        # 605168 <target_id>
  401082:	8d 78 01             	lea    0x1(%rax),%edi
  401085:	e8 26 fc ff ff       	callq  400cb0 <srandom@plt>
  40108a:	e8 51 fd ff ff       	callq  400de0 <random@plt>
  40108f:	89 c7                	mov    %eax,%edi
  401091:	e8 03 03 00 00       	callq  401399 <scramble>
  401096:	89 c3                	mov    %eax,%ebx
  401098:	85 ed                	test   %ebp,%ebp
  40109a:	74 18                	je     4010b4 <initialize_target+0x7a>
  40109c:	bf 00 00 00 00       	mov    $0x0,%edi
  4010a1:	e8 2a fd ff ff       	callq  400dd0 <time@plt>
  4010a6:	89 c7                	mov    %eax,%edi
  4010a8:	e8 03 fc ff ff       	callq  400cb0 <srandom@plt>
  4010ad:	e8 2e fd ff ff       	callq  400de0 <random@plt>
  4010b2:	eb 05                	jmp    4010b9 <initialize_target+0x7f>
  4010b4:	b8 00 00 00 00       	mov    $0x0,%eax
  4010b9:	01 c3                	add    %eax,%ebx
  4010bb:	0f b7 db             	movzwl %bx,%ebx
  4010be:	8d 04 dd 00 01 00 00 	lea    0x100(,%rbx,8),%eax
  4010c5:	89 c0                	mov    %eax,%eax
  4010c7:	48 89 05 b2 60 20 00 	mov    %rax,0x2060b2(%rip)        # 607180 <buf_offset>
  4010ce:	c6 05 53 6d 20 00 63 	movb   $0x63,0x206d53(%rip)        # 607e28 <target_prefix>
  4010d5:	83 3d ac 60 20 00 00 	cmpl   $0x0,0x2060ac(%rip)        # 607188 <notify>
  4010dc:	0f 84 bb 00 00 00    	je     40119d <initialize_target+0x163>
  4010e2:	83 3d 1f 61 20 00 00 	cmpl   $0x0,0x20611f(%rip)        # 607208 <is_checker>
  4010e9:	0f 85 ae 00 00 00    	jne    40119d <initialize_target+0x163>
  4010ef:	be 00 01 00 00       	mov    $0x100,%esi
  4010f4:	48 89 e7             	mov    %rsp,%rdi
  4010f7:	e8 64 fd ff ff       	callq  400e60 <gethostname@plt>
  4010fc:	85 c0                	test   %eax,%eax
  4010fe:	74 25                	je     401125 <initialize_target+0xeb>
  401100:	bf 68 2f 40 00       	mov    $0x402f68,%edi
  401105:	e8 d6 fb ff ff       	callq  400ce0 <puts@plt>
  40110a:	bf 08 00 00 00       	mov    $0x8,%edi
  40110f:	e8 5c fd ff ff       	callq  400e70 <exit@plt>
  401114:	48 89 e6             	mov    %rsp,%rsi
  401117:	e8 74 fb ff ff       	callq  400c90 <strcasecmp@plt>
  40111c:	85 c0                	test   %eax,%eax
  40111e:	74 21                	je     401141 <initialize_target+0x107>
  401120:	83 c3 01             	add    $0x1,%ebx
  401123:	eb 05                	jmp    40112a <initialize_target+0xf0>
  401125:	bb 00 00 00 00       	mov    $0x0,%ebx
  40112a:	48 63 c3             	movslq %ebx,%rax
  40112d:	48 8b 3c c5 80 51 60 	mov    0x605180(,%rax,8),%rdi
  401134:	00 
  401135:	48 85 ff             	test   %rdi,%rdi
  401138:	75 da                	jne    401114 <initialize_target+0xda>
  40113a:	b8 00 00 00 00       	mov    $0x0,%eax
  40113f:	eb 05                	jmp    401146 <initialize_target+0x10c>
  401141:	b8 01 00 00 00       	mov    $0x1,%eax
  401146:	85 c0                	test   %eax,%eax
  401148:	75 1c                	jne    401166 <initialize_target+0x12c>
  40114a:	48 89 e2             	mov    %rsp,%rdx
  40114d:	be a0 2f 40 00       	mov    $0x402fa0,%esi
  401152:	bf 01 00 00 00       	mov    $0x1,%edi
  401157:	e8 c4 fc ff ff       	callq  400e20 <__printf_chk@plt>
  40115c:	bf 08 00 00 00       	mov    $0x8,%edi
  401161:	e8 0a fd ff ff       	callq  400e70 <exit@plt>
  401166:	48 8d bc 24 00 01 00 	lea    0x100(%rsp),%rdi
  40116d:	00 
  40116e:	e8 c8 19 00 00       	callq  402b3b <init_driver>
  401173:	85 c0                	test   %eax,%eax
  401175:	79 26                	jns    40119d <initialize_target+0x163>
  401177:	48 8d 94 24 00 01 00 	lea    0x100(%rsp),%rdx
  40117e:	00 
  40117f:	be e0 2f 40 00       	mov    $0x402fe0,%esi
  401184:	bf 01 00 00 00       	mov    $0x1,%edi
  401189:	b8 00 00 00 00       	mov    $0x0,%eax
  40118e:	e8 8d fc ff ff       	callq  400e20 <__printf_chk@plt>
  401193:	bf 08 00 00 00       	mov    $0x8,%edi
  401198:	e8 d3 fc ff ff       	callq  400e70 <exit@plt>
  40119d:	48 8b 84 24 08 21 00 	mov    0x2108(%rsp),%rax
  4011a4:	00 
  4011a5:	64 48 33 04 25 28 00 	xor    %fs:0x28,%rax
  4011ac:	00 00 
  4011ae:	74 05                	je     4011b5 <initialize_target+0x17b>
  4011b0:	e8 4b fb ff ff       	callq  400d00 <__stack_chk_fail@plt>
  4011b5:	48 81 c4 18 21 00 00 	add    $0x2118,%rsp
  4011bc:	5b                   	pop    %rbx
  4011bd:	5d                   	pop    %rbp
  4011be:	c3                   	retq   

00000000004011bf <main>:
  4011bf:	41 56                	push   %r14
  4011c1:	41 55                	push   %r13
  4011c3:	41 54                	push   %r12
  4011c5:	55                   	push   %rbp
  4011c6:	53                   	push   %rbx
  4011c7:	41 89 fc             	mov    %edi,%r12d
  4011ca:	48 89 f3             	mov    %rsi,%rbx
  4011cd:	be ae 1e 40 00       	mov    $0x401eae,%esi
  4011d2:	bf 0b 00 00 00       	mov    $0xb,%edi
  4011d7:	e8 94 fb ff ff       	callq  400d70 <signal@plt>
  4011dc:	be 60 1e 40 00       	mov    $0x401e60,%esi
  4011e1:	bf 07 00 00 00       	mov    $0x7,%edi
  4011e6:	e8 85 fb ff ff       	callq  400d70 <signal@plt>
  4011eb:	be fc 1e 40 00       	mov    $0x401efc,%esi
  4011f0:	bf 04 00 00 00       	mov    $0x4,%edi
  4011f5:	e8 76 fb ff ff       	callq  400d70 <signal@plt>
  4011fa:	83 3d 07 60 20 00 00 	cmpl   $0x0,0x206007(%rip)        # 607208 <is_checker>
  401201:	74 20                	je     401223 <main+0x64>
  401203:	be 4a 1f 40 00       	mov    $0x401f4a,%esi
  401208:	bf 0e 00 00 00       	mov    $0xe,%edi
  40120d:	e8 5e fb ff ff       	callq  400d70 <signal@plt>
  401212:	bf 05 00 00 00       	mov    $0x5,%edi
  401217:	e8 14 fb ff ff       	callq  400d30 <alarm@plt>
  40121c:	bd aa 30 40 00       	mov    $0x4030aa,%ebp
  401221:	eb 05                	jmp    401228 <main+0x69>
  401223:	bd a5 30 40 00       	mov    $0x4030a5,%ebp
  401228:	48 8b 05 71 5f 20 00 	mov    0x205f71(%rip),%rax        # 6071a0 <stdin@@GLIBC_2.2.5>
  40122f:	48 89 05 ba 5f 20 00 	mov    %rax,0x205fba(%rip)        # 6071f0 <infile>
  401236:	41 bd 00 00 00 00    	mov    $0x0,%r13d
  40123c:	41 be 00 00 00 00    	mov    $0x0,%r14d
  401242:	e9 c6 00 00 00       	jmpq   40130d <main+0x14e>
  401247:	83 e8 61             	sub    $0x61,%eax
  40124a:	3c 10                	cmp    $0x10,%al
  40124c:	0f 87 9c 00 00 00    	ja     4012ee <main+0x12f>
  401252:	0f b6 c0             	movzbl %al,%eax
  401255:	ff 24 c5 f0 30 40 00 	jmpq   *0x4030f0(,%rax,8)
  40125c:	48 8b 3b             	mov    (%rbx),%rdi
  40125f:	e8 4c fd ff ff       	callq  400fb0 <usage>
  401264:	be de 33 40 00       	mov    $0x4033de,%esi
  401269:	48 8b 3d 50 5f 20 00 	mov    0x205f50(%rip),%rdi        # 6071c0 <optarg@@GLIBC_2.2.5>
  401270:	e8 bb fb ff ff       	callq  400e30 <fopen@plt>
  401275:	48 89 05 74 5f 20 00 	mov    %rax,0x205f74(%rip)        # 6071f0 <infile>
  40127c:	48 85 c0             	test   %rax,%rax
  40127f:	0f 85 88 00 00 00    	jne    40130d <main+0x14e>
  401285:	48 8b 0d 34 5f 20 00 	mov    0x205f34(%rip),%rcx        # 6071c0 <optarg@@GLIBC_2.2.5>
  40128c:	ba b2 30 40 00       	mov    $0x4030b2,%edx
  401291:	be 01 00 00 00       	mov    $0x1,%esi
  401296:	48 8b 3d 2b 5f 20 00 	mov    0x205f2b(%rip),%rdi        # 6071c8 <stderr@@GLIBC_2.2.5>
  40129d:	e8 ee fb ff ff       	callq  400e90 <__fprintf_chk@plt>
  4012a2:	b8 01 00 00 00       	mov    $0x1,%eax
  4012a7:	e9 e4 00 00 00       	jmpq   401390 <main+0x1d1>
  4012ac:	ba 10 00 00 00       	mov    $0x10,%edx
  4012b1:	be 00 00 00 00       	mov    $0x0,%esi
  4012b6:	48 8b 3d 03 5f 20 00 	mov    0x205f03(%rip),%rdi        # 6071c0 <optarg@@GLIBC_2.2.5>
  4012bd:	e8 8e fb ff ff       	callq  400e50 <strtoul@plt>
  4012c2:	41 89 c6             	mov    %eax,%r14d
  4012c5:	eb 46                	jmp    40130d <main+0x14e>
  4012c7:	ba 0a 00 00 00       	mov    $0xa,%edx
  4012cc:	be 00 00 00 00       	mov    $0x0,%esi
  4012d1:	48 8b 3d e8 5e 20 00 	mov    0x205ee8(%rip),%rdi        # 6071c0 <optarg@@GLIBC_2.2.5>
  4012d8:	e8 d3 fa ff ff       	callq  400db0 <strtol@plt>
  4012dd:	41 89 c5             	mov    %eax,%r13d
  4012e0:	eb 2b                	jmp    40130d <main+0x14e>
  4012e2:	c7 05 9c 5e 20 00 00 	movl   $0x0,0x205e9c(%rip)        # 607188 <notify>
  4012e9:	00 00 00 
  4012ec:	eb 1f                	jmp    40130d <main+0x14e>
  4012ee:	0f be d2             	movsbl %dl,%edx
  4012f1:	be cf 30 40 00       	mov    $0x4030cf,%esi
  4012f6:	bf 01 00 00 00       	mov    $0x1,%edi
  4012fb:	b8 00 00 00 00       	mov    $0x0,%eax
  401300:	e8 1b fb ff ff       	callq  400e20 <__printf_chk@plt>
  401305:	48 8b 3b             	mov    (%rbx),%rdi
  401308:	e8 a3 fc ff ff       	callq  400fb0 <usage>
  40130d:	48 89 ea             	mov    %rbp,%rdx
  401310:	48 89 de             	mov    %rbx,%rsi
  401313:	44 89 e7             	mov    %r12d,%edi
  401316:	e8 25 fb ff ff       	callq  400e40 <getopt@plt>
  40131b:	89 c2                	mov    %eax,%edx
  40131d:	3c ff                	cmp    $0xff,%al
  40131f:	0f 85 22 ff ff ff    	jne    401247 <main+0x88>
  401325:	be 00 00 00 00       	mov    $0x0,%esi
  40132a:	44 89 ef             	mov    %r13d,%edi
  40132d:	e8 08 fd ff ff       	callq  40103a <initialize_target>
  401332:	83 3d cf 5e 20 00 00 	cmpl   $0x0,0x205ecf(%rip)        # 607208 <is_checker>
  401339:	74 2a                	je     401365 <main+0x1a6>
  40133b:	44 3b 35 be 5e 20 00 	cmp    0x205ebe(%rip),%r14d        # 607200 <authkey>
  401342:	74 21                	je     401365 <main+0x1a6>
  401344:	44 89 f2             	mov    %r14d,%edx
  401347:	be 08 30 40 00       	mov    $0x403008,%esi
  40134c:	bf 01 00 00 00       	mov    $0x1,%edi
  401351:	b8 00 00 00 00       	mov    $0x0,%eax
  401356:	e8 c5 fa ff ff       	callq  400e20 <__printf_chk@plt>
  40135b:	b8 00 00 00 00       	mov    $0x0,%eax
  401360:	e8 86 07 00 00       	callq  401aeb <check_fail>
  401365:	8b 15 99 5e 20 00    	mov    0x205e99(%rip),%edx        # 607204 <cookie>
  40136b:	be e2 30 40 00       	mov    $0x4030e2,%esi
  401370:	bf 01 00 00 00       	mov    $0x1,%edi
  401375:	b8 00 00 00 00       	mov    $0x0,%eax
  40137a:	e8 a1 fa ff ff       	callq  400e20 <__printf_chk@plt>
  40137f:	48 8b 3d fa 5d 20 00 	mov    0x205dfa(%rip),%rdi        # 607180 <buf_offset>
  401386:	e8 bf 0c 00 00       	callq  40204a <stable_launch>
  40138b:	b8 00 00 00 00       	mov    $0x0,%eax
  401390:	5b                   	pop    %rbx
  401391:	5d                   	pop    %rbp
  401392:	41 5c                	pop    %r12
  401394:	41 5d                	pop    %r13
  401396:	41 5e                	pop    %r14
  401398:	c3                   	retq   

0000000000401399 <scramble>:
  401399:	b8 00 00 00 00       	mov    $0x0,%eax
  40139e:	eb 11                	jmp    4013b1 <scramble+0x18>
  4013a0:	69 c8 48 27 00 00    	imul   $0x2748,%eax,%ecx
  4013a6:	01 f9                	add    %edi,%ecx
  4013a8:	89 c2                	mov    %eax,%edx
  4013aa:	89 4c 94 c8          	mov    %ecx,-0x38(%rsp,%rdx,4)
  4013ae:	83 c0 01             	add    $0x1,%eax
  4013b1:	83 f8 09             	cmp    $0x9,%eax
  4013b4:	76 ea                	jbe    4013a0 <scramble+0x7>
  4013b6:	8b 44 24 e8          	mov    -0x18(%rsp),%eax
  4013ba:	69 c0 d3 1e 00 00    	imul   $0x1ed3,%eax,%eax
  4013c0:	89 44 24 e8          	mov    %eax,-0x18(%rsp)
  4013c4:	8b 44 24 d4          	mov    -0x2c(%rsp),%eax
  4013c8:	69 c0 5d 76 00 00    	imul   $0x765d,%eax,%eax
  4013ce:	89 44 24 d4          	mov    %eax,-0x2c(%rsp)
  4013d2:	8b 44 24 c8          	mov    -0x38(%rsp),%eax
  4013d6:	69 c0 f1 46 00 00    	imul   $0x46f1,%eax,%eax
  4013dc:	89 44 24 c8          	mov    %eax,-0x38(%rsp)
  4013e0:	8b 44 24 c8          	mov    -0x38(%rsp),%eax
  4013e4:	69 c0 73 d2 00 00    	imul   $0xd273,%eax,%eax
  4013ea:	89 44 24 c8          	mov    %eax,-0x38(%rsp)
  4013ee:	8b 44 24 e4          	mov    -0x1c(%rsp),%eax
  4013f2:	69 c0 7c 4b 00 00    	imul   $0x4b7c,%eax,%eax
  4013f8:	89 44 24 e4          	mov    %eax,-0x1c(%rsp)
  4013fc:	8b 44 24 c8          	mov    -0x38(%rsp),%eax
  401400:	69 c0 98 e3 00 00    	imul   $0xe398,%eax,%eax
  401406:	89 44 24 c8          	mov    %eax,-0x38(%rsp)
  40140a:	8b 44 24 d8          	mov    -0x28(%rsp),%eax
  40140e:	69 c0 5d a6 00 00    	imul   $0xa65d,%eax,%eax
  401414:	89 44 24 d8          	mov    %eax,-0x28(%rsp)
  401418:	8b 44 24 cc          	mov    -0x34(%rsp),%eax
  40141c:	69 c0 3e de 00 00    	imul   $0xde3e,%eax,%eax
  401422:	89 44 24 cc          	mov    %eax,-0x34(%rsp)
  401426:	8b 44 24 ec          	mov    -0x14(%rsp),%eax
  40142a:	69 c0 fe b9 00 00    	imul   $0xb9fe,%eax,%eax
  401430:	89 44 24 ec          	mov    %eax,-0x14(%rsp)
  401434:	8b 44 24 d0          	mov    -0x30(%rsp),%eax
  401438:	69 c0 34 cf 00 00    	imul   $0xcf34,%eax,%eax
  40143e:	89 44 24 d0          	mov    %eax,-0x30(%rsp)
  401442:	8b 44 24 dc          	mov    -0x24(%rsp),%eax
  401446:	69 c0 01 a8 00 00    	imul   $0xa801,%eax,%eax
  40144c:	89 44 24 dc          	mov    %eax,-0x24(%rsp)
  401450:	8b 44 24 ec          	mov    -0x14(%rsp),%eax
  401454:	69 c0 b3 7a 00 00    	imul   $0x7ab3,%eax,%eax
  40145a:	89 44 24 ec          	mov    %eax,-0x14(%rsp)
  40145e:	8b 44 24 cc          	mov    -0x34(%rsp),%eax
  401462:	69 c0 f9 63 00 00    	imul   $0x63f9,%eax,%eax
  401468:	89 44 24 cc          	mov    %eax,-0x34(%rsp)
  40146c:	8b 44 24 cc          	mov    -0x34(%rsp),%eax
  401470:	69 c0 6a 38 00 00    	imul   $0x386a,%eax,%eax
  401476:	89 44 24 cc          	mov    %eax,-0x34(%rsp)
  40147a:	8b 44 24 d0          	mov    -0x30(%rsp),%eax
  40147e:	69 c0 92 d4 00 00    	imul   $0xd492,%eax,%eax
  401484:	89 44 24 d0          	mov    %eax,-0x30(%rsp)
  401488:	8b 44 24 e4          	mov    -0x1c(%rsp),%eax
  40148c:	69 c0 a0 8f 00 00    	imul   $0x8fa0,%eax,%eax
  401492:	89 44 24 e4          	mov    %eax,-0x1c(%rsp)
  401496:	8b 44 24 dc          	mov    -0x24(%rsp),%eax
  40149a:	69 c0 df 6b 00 00    	imul   $0x6bdf,%eax,%eax
  4014a0:	89 44 24 dc          	mov    %eax,-0x24(%rsp)
  4014a4:	8b 44 24 d8          	mov    -0x28(%rsp),%eax
  4014a8:	69 c0 a0 7e 00 00    	imul   $0x7ea0,%eax,%eax
  4014ae:	89 44 24 d8          	mov    %eax,-0x28(%rsp)
  4014b2:	8b 44 24 e8          	mov    -0x18(%rsp),%eax
  4014b6:	69 c0 e1 ac 00 00    	imul   $0xace1,%eax,%eax
  4014bc:	89 44 24 e8          	mov    %eax,-0x18(%rsp)
  4014c0:	8b 44 24 d0          	mov    -0x30(%rsp),%eax
  4014c4:	69 c0 b1 dc 00 00    	imul   $0xdcb1,%eax,%eax
  4014ca:	89 44 24 d0          	mov    %eax,-0x30(%rsp)
  4014ce:	8b 44 24 e4          	mov    -0x1c(%rsp),%eax
  4014d2:	69 c0 65 7b 00 00    	imul   $0x7b65,%eax,%eax
  4014d8:	89 44 24 e4          	mov    %eax,-0x1c(%rsp)
  4014dc:	8b 44 24 c8          	mov    -0x38(%rsp),%eax
  4014e0:	69 c0 0c 92 00 00    	imul   $0x920c,%eax,%eax
  4014e6:	89 44 24 c8          	mov    %eax,-0x38(%rsp)
  4014ea:	8b 44 24 e0          	mov    -0x20(%rsp),%eax
  4014ee:	69 c0 c7 bb 00 00    	imul   $0xbbc7,%eax,%eax
  4014f4:	89 44 24 e0          	mov    %eax,-0x20(%rsp)
  4014f8:	8b 44 24 e8          	mov    -0x18(%rsp),%eax
  4014fc:	69 c0 39 a7 00 00    	imul   $0xa739,%eax,%eax
  401502:	89 44 24 e8          	mov    %eax,-0x18(%rsp)
  401506:	8b 44 24 ec          	mov    -0x14(%rsp),%eax
  40150a:	69 c0 8d 23 00 00    	imul   $0x238d,%eax,%eax
  401510:	89 44 24 ec          	mov    %eax,-0x14(%rsp)
  401514:	8b 44 24 d0          	mov    -0x30(%rsp),%eax
  401518:	69 c0 cc 2f 00 00    	imul   $0x2fcc,%eax,%eax
  40151e:	89 44 24 d0          	mov    %eax,-0x30(%rsp)
  401522:	8b 44 24 dc          	mov    -0x24(%rsp),%eax
  401526:	69 c0 39 f1 00 00    	imul   $0xf139,%eax,%eax
  40152c:	89 44 24 dc          	mov    %eax,-0x24(%rsp)
  401530:	8b 44 24 e8          	mov    -0x18(%rsp),%eax
  401534:	69 c0 21 a0 00 00    	imul   $0xa021,%eax,%eax
  40153a:	89 44 24 e8          	mov    %eax,-0x18(%rsp)
  40153e:	8b 44 24 e4          	mov    -0x1c(%rsp),%eax
  401542:	69 c0 0f 94 00 00    	imul   $0x940f,%eax,%eax
  401548:	89 44 24 e4          	mov    %eax,-0x1c(%rsp)
  40154c:	8b 44 24 e4          	mov    -0x1c(%rsp),%eax
  401550:	69 c0 8a bd 00 00    	imul   $0xbd8a,%eax,%eax
  401556:	89 44 24 e4          	mov    %eax,-0x1c(%rsp)
  40155a:	8b 44 24 e0          	mov    -0x20(%rsp),%eax
  40155e:	69 c0 da 2f 00 00    	imul   $0x2fda,%eax,%eax
  401564:	89 44 24 e0          	mov    %eax,-0x20(%rsp)
  401568:	8b 44 24 dc          	mov    -0x24(%rsp),%eax
  40156c:	69 c0 07 5c 00 00    	imul   $0x5c07,%eax,%eax
  401572:	89 44 24 dc          	mov    %eax,-0x24(%rsp)
  401576:	8b 44 24 ec          	mov    -0x14(%rsp),%eax
  40157a:	69 c0 27 53 00 00    	imul   $0x5327,%eax,%eax
  401580:	89 44 24 ec          	mov    %eax,-0x14(%rsp)
  401584:	8b 44 24 e8          	mov    -0x18(%rsp),%eax
  401588:	69 c0 89 4e 00 00    	imul   $0x4e89,%eax,%eax
  40158e:	89 44 24 e8          	mov    %eax,-0x18(%rsp)
  401592:	8b 44 24 e0          	mov    -0x20(%rsp),%eax
  401596:	69 c0 bb 2b 00 00    	imul   $0x2bbb,%eax,%eax
  40159c:	89 44 24 e0          	mov    %eax,-0x20(%rsp)
  4015a0:	8b 44 24 e8          	mov    -0x18(%rsp),%eax
  4015a4:	69 c0 66 f8 00 00    	imul   $0xf866,%eax,%eax
  4015aa:	89 44 24 e8          	mov    %eax,-0x18(%rsp)
  4015ae:	8b 44 24 e0          	mov    -0x20(%rsp),%eax
  4015b2:	69 c0 83 eb 00 00    	imul   $0xeb83,%eax,%eax
  4015b8:	89 44 24 e0          	mov    %eax,-0x20(%rsp)
  4015bc:	8b 44 24 cc          	mov    -0x34(%rsp),%eax
  4015c0:	69 c0 e3 c8 00 00    	imul   $0xc8e3,%eax,%eax
  4015c6:	89 44 24 cc          	mov    %eax,-0x34(%rsp)
  4015ca:	8b 44 24 d8          	mov    -0x28(%rsp),%eax
  4015ce:	69 c0 bc fa 00 00    	imul   $0xfabc,%eax,%eax
  4015d4:	89 44 24 d8          	mov    %eax,-0x28(%rsp)
  4015d8:	8b 44 24 d0          	mov    -0x30(%rsp),%eax
  4015dc:	69 c0 11 1d 00 00    	imul   $0x1d11,%eax,%eax
  4015e2:	89 44 24 d0          	mov    %eax,-0x30(%rsp)
  4015e6:	8b 44 24 cc          	mov    -0x34(%rsp),%eax
  4015ea:	69 c0 8a e6 00 00    	imul   $0xe68a,%eax,%eax
  4015f0:	89 44 24 cc          	mov    %eax,-0x34(%rsp)
  4015f4:	8b 44 24 d4          	mov    -0x2c(%rsp),%eax
  4015f8:	69 c0 d8 e9 00 00    	imul   $0xe9d8,%eax,%eax
  4015fe:	89 44 24 d4          	mov    %eax,-0x2c(%rsp)
  401602:	8b 44 24 e8          	mov    -0x18(%rsp),%eax
  401606:	69 c0 5d f7 00 00    	imul   $0xf75d,%eax,%eax
  40160c:	89 44 24 e8          	mov    %eax,-0x18(%rsp)
  401610:	8b 44 24 c8          	mov    -0x38(%rsp),%eax
  401614:	69 c0 f5 2c 00 00    	imul   $0x2cf5,%eax,%eax
  40161a:	89 44 24 c8          	mov    %eax,-0x38(%rsp)
  40161e:	8b 44 24 dc          	mov    -0x24(%rsp),%eax
  401622:	69 c0 85 62 00 00    	imul   $0x6285,%eax,%eax
  401628:	89 44 24 dc          	mov    %eax,-0x24(%rsp)
  40162c:	8b 44 24 ec          	mov    -0x14(%rsp),%eax
  401630:	69 c0 0d f4 00 00    	imul   $0xf40d,%eax,%eax
  401636:	89 44 24 ec          	mov    %eax,-0x14(%rsp)
  40163a:	8b 44 24 e0          	mov    -0x20(%rsp),%eax
  40163e:	69 c0 a9 37 00 00    	imul   $0x37a9,%eax,%eax
  401644:	89 44 24 e0          	mov    %eax,-0x20(%rsp)
  401648:	8b 44 24 d8          	mov    -0x28(%rsp),%eax
  40164c:	69 c0 18 2e 00 00    	imul   $0x2e18,%eax,%eax
  401652:	89 44 24 d8          	mov    %eax,-0x28(%rsp)
  401656:	8b 44 24 e8          	mov    -0x18(%rsp),%eax
  40165a:	69 c0 bc 2a 00 00    	imul   $0x2abc,%eax,%eax
  401660:	89 44 24 e8          	mov    %eax,-0x18(%rsp)
  401664:	8b 44 24 ec          	mov    -0x14(%rsp),%eax
  401668:	69 c0 d9 8a 00 00    	imul   $0x8ad9,%eax,%eax
  40166e:	89 44 24 ec          	mov    %eax,-0x14(%rsp)
  401672:	8b 44 24 e4          	mov    -0x1c(%rsp),%eax
  401676:	69 c0 dc a7 00 00    	imul   $0xa7dc,%eax,%eax
  40167c:	89 44 24 e4          	mov    %eax,-0x1c(%rsp)
  401680:	8b 44 24 d0          	mov    -0x30(%rsp),%eax
  401684:	69 c0 98 fd 00 00    	imul   $0xfd98,%eax,%eax
  40168a:	89 44 24 d0          	mov    %eax,-0x30(%rsp)
  40168e:	8b 44 24 ec          	mov    -0x14(%rsp),%eax
  401692:	69 c0 b2 0d 00 00    	imul   $0xdb2,%eax,%eax
  401698:	89 44 24 ec          	mov    %eax,-0x14(%rsp)
  40169c:	8b 44 24 c8          	mov    -0x38(%rsp),%eax
  4016a0:	69 c0 ab 3a 00 00    	imul   $0x3aab,%eax,%eax
  4016a6:	89 44 24 c8          	mov    %eax,-0x38(%rsp)
  4016aa:	8b 44 24 e0          	mov    -0x20(%rsp),%eax
  4016ae:	69 c0 97 36 00 00    	imul   $0x3697,%eax,%eax
  4016b4:	89 44 24 e0          	mov    %eax,-0x20(%rsp)
  4016b8:	8b 44 24 ec          	mov    -0x14(%rsp),%eax
  4016bc:	69 c0 b8 26 00 00    	imul   $0x26b8,%eax,%eax
  4016c2:	89 44 24 ec          	mov    %eax,-0x14(%rsp)
  4016c6:	8b 44 24 ec          	mov    -0x14(%rsp),%eax
  4016ca:	69 c0 99 a4 00 00    	imul   $0xa499,%eax,%eax
  4016d0:	89 44 24 ec          	mov    %eax,-0x14(%rsp)
  4016d4:	8b 44 24 e8          	mov    -0x18(%rsp),%eax
  4016d8:	69 c0 e4 f4 00 00    	imul   $0xf4e4,%eax,%eax
  4016de:	89 44 24 e8          	mov    %eax,-0x18(%rsp)
  4016e2:	8b 44 24 e8          	mov    -0x18(%rsp),%eax
  4016e6:	69 c0 8b 9a 00 00    	imul   $0x9a8b,%eax,%eax
  4016ec:	89 44 24 e8          	mov    %eax,-0x18(%rsp)
  4016f0:	8b 44 24 d8          	mov    -0x28(%rsp),%eax
  4016f4:	69 c0 62 27 00 00    	imul   $0x2762,%eax,%eax
  4016fa:	89 44 24 d8          	mov    %eax,-0x28(%rsp)
  4016fe:	8b 44 24 c8          	mov    -0x38(%rsp),%eax
  401702:	69 c0 59 0c 00 00    	imul   $0xc59,%eax,%eax
  401708:	89 44 24 c8          	mov    %eax,-0x38(%rsp)
  40170c:	8b 44 24 e4          	mov    -0x1c(%rsp),%eax
  401710:	69 c0 70 8f 00 00    	imul   $0x8f70,%eax,%eax
  401716:	89 44 24 e4          	mov    %eax,-0x1c(%rsp)
  40171a:	8b 44 24 d0          	mov    -0x30(%rsp),%eax
  40171e:	69 c0 84 6b 00 00    	imul   $0x6b84,%eax,%eax
  401724:	89 44 24 d0          	mov    %eax,-0x30(%rsp)
  401728:	8b 44 24 e0          	mov    -0x20(%rsp),%eax
  40172c:	69 c0 d3 ce 00 00    	imul   $0xced3,%eax,%eax
  401732:	89 44 24 e0          	mov    %eax,-0x20(%rsp)
  401736:	8b 44 24 e0          	mov    -0x20(%rsp),%eax
  40173a:	69 c0 2a 3a 00 00    	imul   $0x3a2a,%eax,%eax
  401740:	89 44 24 e0          	mov    %eax,-0x20(%rsp)
  401744:	8b 44 24 e4          	mov    -0x1c(%rsp),%eax
  401748:	69 c0 b8 ec 00 00    	imul   $0xecb8,%eax,%eax
  40174e:	89 44 24 e4          	mov    %eax,-0x1c(%rsp)
  401752:	8b 44 24 d8          	mov    -0x28(%rsp),%eax
  401756:	69 c0 ec dc 00 00    	imul   $0xdcec,%eax,%eax
  40175c:	89 44 24 d8          	mov    %eax,-0x28(%rsp)
  401760:	8b 44 24 c8          	mov    -0x38(%rsp),%eax
  401764:	69 c0 67 75 00 00    	imul   $0x7567,%eax,%eax
  40176a:	89 44 24 c8          	mov    %eax,-0x38(%rsp)
  40176e:	8b 44 24 e0          	mov    -0x20(%rsp),%eax
  401772:	69 c0 cb b0 00 00    	imul   $0xb0cb,%eax,%eax
  401778:	89 44 24 e0          	mov    %eax,-0x20(%rsp)
  40177c:	8b 44 24 e8          	mov    -0x18(%rsp),%eax
  401780:	69 c0 0c f3 00 00    	imul   $0xf30c,%eax,%eax
  401786:	89 44 24 e8          	mov    %eax,-0x18(%rsp)
  40178a:	8b 44 24 d4          	mov    -0x2c(%rsp),%eax
  40178e:	69 c0 ce 07 00 00    	imul   $0x7ce,%eax,%eax
  401794:	89 44 24 d4          	mov    %eax,-0x2c(%rsp)
  401798:	8b 44 24 cc          	mov    -0x34(%rsp),%eax
  40179c:	69 c0 84 04 00 00    	imul   $0x484,%eax,%eax
  4017a2:	89 44 24 cc          	mov    %eax,-0x34(%rsp)
  4017a6:	8b 44 24 d0          	mov    -0x30(%rsp),%eax
  4017aa:	69 c0 56 2a 00 00    	imul   $0x2a56,%eax,%eax
  4017b0:	89 44 24 d0          	mov    %eax,-0x30(%rsp)
  4017b4:	8b 44 24 cc          	mov    -0x34(%rsp),%eax
  4017b8:	69 c0 5e 48 00 00    	imul   $0x485e,%eax,%eax
  4017be:	89 44 24 cc          	mov    %eax,-0x34(%rsp)
  4017c2:	8b 44 24 d0          	mov    -0x30(%rsp),%eax
  4017c6:	69 c0 42 1b 00 00    	imul   $0x1b42,%eax,%eax
  4017cc:	89 44 24 d0          	mov    %eax,-0x30(%rsp)
  4017d0:	8b 44 24 e0          	mov    -0x20(%rsp),%eax
  4017d4:	69 c0 f1 c1 00 00    	imul   $0xc1f1,%eax,%eax
  4017da:	89 44 24 e0          	mov    %eax,-0x20(%rsp)
  4017de:	8b 44 24 d4          	mov    -0x2c(%rsp),%eax
  4017e2:	69 c0 30 8b 00 00    	imul   $0x8b30,%eax,%eax
  4017e8:	89 44 24 d4          	mov    %eax,-0x2c(%rsp)
  4017ec:	8b 44 24 cc          	mov    -0x34(%rsp),%eax
  4017f0:	69 c0 9f 6b 00 00    	imul   $0x6b9f,%eax,%eax
  4017f6:	89 44 24 cc          	mov    %eax,-0x34(%rsp)
  4017fa:	8b 44 24 d8          	mov    -0x28(%rsp),%eax
  4017fe:	69 c0 ea 0e 00 00    	imul   $0xeea,%eax,%eax
  401804:	89 44 24 d8          	mov    %eax,-0x28(%rsp)
  401808:	8b 44 24 e0          	mov    -0x20(%rsp),%eax
  40180c:	69 c0 f5 8c 00 00    	imul   $0x8cf5,%eax,%eax
  401812:	89 44 24 e0          	mov    %eax,-0x20(%rsp)
  401816:	8b 44 24 d4          	mov    -0x2c(%rsp),%eax
  40181a:	69 c0 1f 94 00 00    	imul   $0x941f,%eax,%eax
  401820:	89 44 24 d4          	mov    %eax,-0x2c(%rsp)
  401824:	8b 44 24 ec          	mov    -0x14(%rsp),%eax
  401828:	69 c0 1b 2b 00 00    	imul   $0x2b1b,%eax,%eax
  40182e:	89 44 24 ec          	mov    %eax,-0x14(%rsp)
  401832:	8b 44 24 e0          	mov    -0x20(%rsp),%eax
  401836:	69 c0 fd 63 00 00    	imul   $0x63fd,%eax,%eax
  40183c:	89 44 24 e0          	mov    %eax,-0x20(%rsp)
  401840:	8b 44 24 d0          	mov    -0x30(%rsp),%eax
  401844:	69 c0 a9 5b 00 00    	imul   $0x5ba9,%eax,%eax
  40184a:	89 44 24 d0          	mov    %eax,-0x30(%rsp)
  40184e:	8b 44 24 ec          	mov    -0x14(%rsp),%eax
  401852:	69 c0 94 50 00 00    	imul   $0x5094,%eax,%eax
  401858:	89 44 24 ec          	mov    %eax,-0x14(%rsp)
  40185c:	8b 44 24 e0          	mov    -0x20(%rsp),%eax
  401860:	69 c0 2b fc 00 00    	imul   $0xfc2b,%eax,%eax
  401866:	89 44 24 e0          	mov    %eax,-0x20(%rsp)
  40186a:	8b 44 24 cc          	mov    -0x34(%rsp),%eax
  40186e:	69 c0 7a 68 00 00    	imul   $0x687a,%eax,%eax
  401874:	89 44 24 cc          	mov    %eax,-0x34(%rsp)
  401878:	ba 00 00 00 00       	mov    $0x0,%edx
  40187d:	b8 00 00 00 00       	mov    $0x0,%eax
  401882:	eb 0b                	jmp    40188f <scramble+0x4f6>
  401884:	89 d1                	mov    %edx,%ecx
  401886:	8b 4c 8c c8          	mov    -0x38(%rsp,%rcx,4),%ecx
  40188a:	01 c8                	add    %ecx,%eax
  40188c:	83 c2 01             	add    $0x1,%edx
  40188f:	83 fa 09             	cmp    $0x9,%edx
  401892:	76 f0                	jbe    401884 <scramble+0x4eb>
  401894:	f3 c3                	repz retq 

0000000000401896 <getbuf>:
  401896:	48 83 ec 38          	sub    $0x38,%rsp
  40189a:	48 89 e7             	mov    %rsp,%rdi
  40189d:	e8 7e 02 00 00       	callq  401b20 <Gets>
  4018a2:	b8 01 00 00 00       	mov    $0x1,%eax
  4018a7:	48 83 c4 38          	add    $0x38,%rsp
  4018ab:	c3                   	retq   

00000000004018ac <touch1>:
  4018ac:	48 83 ec 08          	sub    $0x8,%rsp
  4018b0:	c7 05 42 59 20 00 01 	movl   $0x1,0x205942(%rip)        # 6071fc <vlevel>
  4018b7:	00 00 00 
  4018ba:	bf 35 3d 40 00       	mov    $0x403d35,%edi
  4018bf:	e8 1c f4 ff ff       	callq  400ce0 <puts@plt>
  4018c4:	bf 01 00 00 00       	mov    $0x1,%edi
  4018c9:	e8 a8 04 00 00       	callq  401d76 <validate>
  4018ce:	bf 00 00 00 00       	mov    $0x0,%edi
  4018d3:	e8 98 f5 ff ff       	callq  400e70 <exit@plt>

00000000004018d8 <touch2>:
  4018d8:	48 83 ec 08          	sub    $0x8,%rsp
  4018dc:	89 fa                	mov    %edi,%edx
  4018de:	c7 05 14 59 20 00 02 	movl   $0x2,0x205914(%rip)        # 6071fc <vlevel>
  4018e5:	00 00 00 
  4018e8:	3b 3d 16 59 20 00    	cmp    0x205916(%rip),%edi        # 607204 <cookie>
  4018ee:	75 20                	jne    401910 <touch2+0x38>
  4018f0:	be 58 3d 40 00       	mov    $0x403d58,%esi
  4018f5:	bf 01 00 00 00       	mov    $0x1,%edi
  4018fa:	b8 00 00 00 00       	mov    $0x0,%eax
  4018ff:	e8 1c f5 ff ff       	callq  400e20 <__printf_chk@plt>
  401904:	bf 02 00 00 00       	mov    $0x2,%edi
  401909:	e8 68 04 00 00       	callq  401d76 <validate>
  40190e:	eb 1e                	jmp    40192e <touch2+0x56>
  401910:	be 80 3d 40 00       	mov    $0x403d80,%esi
  401915:	bf 01 00 00 00       	mov    $0x1,%edi
  40191a:	b8 00 00 00 00       	mov    $0x0,%eax
  40191f:	e8 fc f4 ff ff       	callq  400e20 <__printf_chk@plt>
  401924:	bf 02 00 00 00       	mov    $0x2,%edi
  401929:	e8 0a 05 00 00       	callq  401e38 <fail>
  40192e:	bf 00 00 00 00       	mov    $0x0,%edi
  401933:	e8 38 f5 ff ff       	callq  400e70 <exit@plt>

0000000000401938 <hexmatch>:
  401938:	41 54                	push   %r12
  40193a:	55                   	push   %rbp
  40193b:	53                   	push   %rbx
  40193c:	48 83 c4 80          	add    $0xffffffffffffff80,%rsp
  401940:	41 89 fc             	mov    %edi,%r12d
  401943:	48 89 f5             	mov    %rsi,%rbp
  401946:	64 48 8b 04 25 28 00 	mov    %fs:0x28,%rax
  40194d:	00 00 
  40194f:	48 89 44 24 78       	mov    %rax,0x78(%rsp)
  401954:	31 c0                	xor    %eax,%eax
  401956:	e8 85 f4 ff ff       	callq  400de0 <random@plt>
  40195b:	48 89 c1             	mov    %rax,%rcx
  40195e:	48 ba 0b d7 a3 70 3d 	movabs $0xa3d70a3d70a3d70b,%rdx
  401965:	0a d7 a3 
  401968:	48 f7 ea             	imul   %rdx
  40196b:	48 01 ca             	add    %rcx,%rdx
  40196e:	48 c1 fa 06          	sar    $0x6,%rdx
  401972:	48 89 c8             	mov    %rcx,%rax
  401975:	48 c1 f8 3f          	sar    $0x3f,%rax
  401979:	48 29 c2             	sub    %rax,%rdx
  40197c:	48 8d 04 92          	lea    (%rdx,%rdx,4),%rax
  401980:	48 8d 04 80          	lea    (%rax,%rax,4),%rax
  401984:	48 c1 e0 02          	shl    $0x2,%rax
  401988:	48 29 c1             	sub    %rax,%rcx
  40198b:	48 8d 1c 0c          	lea    (%rsp,%rcx,1),%rbx
  40198f:	45 89 e0             	mov    %r12d,%r8d
  401992:	b9 52 3d 40 00       	mov    $0x403d52,%ecx
  401997:	48 c7 c2 ff ff ff ff 	mov    $0xffffffffffffffff,%rdx
  40199e:	be 01 00 00 00       	mov    $0x1,%esi
  4019a3:	48 89 df             	mov    %rbx,%rdi
  4019a6:	b8 00 00 00 00       	mov    $0x0,%eax
  4019ab:	e8 f0 f4 ff ff       	callq  400ea0 <__sprintf_chk@plt>
  4019b0:	ba 09 00 00 00       	mov    $0x9,%edx
  4019b5:	48 89 de             	mov    %rbx,%rsi
  4019b8:	48 89 ef             	mov    %rbp,%rdi
  4019bb:	e8 00 f3 ff ff       	callq  400cc0 <strncmp@plt>
  4019c0:	85 c0                	test   %eax,%eax
  4019c2:	0f 94 c0             	sete   %al
  4019c5:	0f b6 c0             	movzbl %al,%eax
  4019c8:	48 8b 74 24 78       	mov    0x78(%rsp),%rsi
  4019cd:	64 48 33 34 25 28 00 	xor    %fs:0x28,%rsi
  4019d4:	00 00 
  4019d6:	74 05                	je     4019dd <hexmatch+0xa5>
  4019d8:	e8 23 f3 ff ff       	callq  400d00 <__stack_chk_fail@plt>
  4019dd:	48 83 ec 80          	sub    $0xffffffffffffff80,%rsp
  4019e1:	5b                   	pop    %rbx
  4019e2:	5d                   	pop    %rbp
  4019e3:	41 5c                	pop    %r12
  4019e5:	c3                   	retq   

00000000004019e6 <touch3>:
  4019e6:	53                   	push   %rbx
  4019e7:	48 89 fb             	mov    %rdi,%rbx
  4019ea:	c7 05 08 58 20 00 03 	movl   $0x3,0x205808(%rip)        # 6071fc <vlevel>
  4019f1:	00 00 00 
  4019f4:	48 89 fe             	mov    %rdi,%rsi
  4019f7:	8b 3d 07 58 20 00    	mov    0x205807(%rip),%edi        # 607204 <cookie>
  4019fd:	e8 36 ff ff ff       	callq  401938 <hexmatch>
  401a02:	85 c0                	test   %eax,%eax
  401a04:	74 23                	je     401a29 <touch3+0x43>
  401a06:	48 89 da             	mov    %rbx,%rdx
  401a09:	be a8 3d 40 00       	mov    $0x403da8,%esi
  401a0e:	bf 01 00 00 00       	mov    $0x1,%edi
  401a13:	b8 00 00 00 00       	mov    $0x0,%eax
  401a18:	e8 03 f4 ff ff       	callq  400e20 <__printf_chk@plt>
  401a1d:	bf 03 00 00 00       	mov    $0x3,%edi
  401a22:	e8 4f 03 00 00       	callq  401d76 <validate>
  401a27:	eb 21                	jmp    401a4a <touch3+0x64>
  401a29:	48 89 da             	mov    %rbx,%rdx
  401a2c:	be d0 3d 40 00       	mov    $0x403dd0,%esi
  401a31:	bf 01 00 00 00       	mov    $0x1,%edi
  401a36:	b8 00 00 00 00       	mov    $0x0,%eax
  401a3b:	e8 e0 f3 ff ff       	callq  400e20 <__printf_chk@plt>
  401a40:	bf 03 00 00 00       	mov    $0x3,%edi
  401a45:	e8 ee 03 00 00       	callq  401e38 <fail>
  401a4a:	bf 00 00 00 00       	mov    $0x0,%edi
  401a4f:	e8 1c f4 ff ff       	callq  400e70 <exit@plt>

0000000000401a54 <test>:
  401a54:	48 83 ec 08          	sub    $0x8,%rsp
  401a58:	b8 00 00 00 00       	mov    $0x0,%eax
  401a5d:	e8 34 fe ff ff       	callq  401896 <getbuf>
  401a62:	89 c2                	mov    %eax,%edx
  401a64:	be f8 3d 40 00       	mov    $0x403df8,%esi
  401a69:	bf 01 00 00 00       	mov    $0x1,%edi
  401a6e:	b8 00 00 00 00       	mov    $0x0,%eax
  401a73:	e8 a8 f3 ff ff       	callq  400e20 <__printf_chk@plt>
  401a78:	48 83 c4 08          	add    $0x8,%rsp
  401a7c:	c3                   	retq   
  401a7d:	0f 1f 00             	nopl   (%rax)

0000000000401a80 <save_char>:
  401a80:	8b 05 9e 63 20 00    	mov    0x20639e(%rip),%eax        # 607e24 <gets_cnt>
  401a86:	3d ff 03 00 00       	cmp    $0x3ff,%eax
  401a8b:	7f 49                	jg     401ad6 <save_char+0x56>
  401a8d:	8d 14 40             	lea    (%rax,%rax,2),%edx
  401a90:	89 f9                	mov    %edi,%ecx
  401a92:	c0 e9 04             	shr    $0x4,%cl
  401a95:	83 e1 0f             	and    $0xf,%ecx
  401a98:	0f b6 b1 20 41 40 00 	movzbl 0x404120(%rcx),%esi
  401a9f:	48 63 ca             	movslq %edx,%rcx
  401aa2:	40 88 b1 20 72 60 00 	mov    %sil,0x607220(%rcx)
  401aa9:	8d 4a 01             	lea    0x1(%rdx),%ecx
  401aac:	83 e7 0f             	and    $0xf,%edi
  401aaf:	0f b6 b7 20 41 40 00 	movzbl 0x404120(%rdi),%esi
  401ab6:	48 63 c9             	movslq %ecx,%rcx
  401ab9:	40 88 b1 20 72 60 00 	mov    %sil,0x607220(%rcx)
  401ac0:	83 c2 02             	add    $0x2,%edx
  401ac3:	48 63 d2             	movslq %edx,%rdx
  401ac6:	c6 82 20 72 60 00 20 	movb   $0x20,0x607220(%rdx)
  401acd:	83 c0 01             	add    $0x1,%eax
  401ad0:	89 05 4e 63 20 00    	mov    %eax,0x20634e(%rip)        # 607e24 <gets_cnt>
  401ad6:	f3 c3                	repz retq 

0000000000401ad8 <save_term>:
  401ad8:	8b 05 46 63 20 00    	mov    0x206346(%rip),%eax        # 607e24 <gets_cnt>
  401ade:	8d 04 40             	lea    (%rax,%rax,2),%eax
  401ae1:	48 98                	cltq   
  401ae3:	c6 80 20 72 60 00 00 	movb   $0x0,0x607220(%rax)
  401aea:	c3                   	retq   

0000000000401aeb <check_fail>:
  401aeb:	48 83 ec 08          	sub    $0x8,%rsp
  401aef:	0f be 15 32 63 20 00 	movsbl 0x206332(%rip),%edx        # 607e28 <target_prefix>
  401af6:	41 b8 20 72 60 00    	mov    $0x607220,%r8d
  401afc:	8b 0d f6 56 20 00    	mov    0x2056f6(%rip),%ecx        # 6071f8 <check_level>
  401b02:	be 1b 3e 40 00       	mov    $0x403e1b,%esi
  401b07:	bf 01 00 00 00       	mov    $0x1,%edi
  401b0c:	b8 00 00 00 00       	mov    $0x0,%eax
  401b11:	e8 0a f3 ff ff       	callq  400e20 <__printf_chk@plt>
  401b16:	bf 01 00 00 00       	mov    $0x1,%edi
  401b1b:	e8 50 f3 ff ff       	callq  400e70 <exit@plt>

0000000000401b20 <Gets>:
  401b20:	41 54                	push   %r12
  401b22:	55                   	push   %rbp
  401b23:	53                   	push   %rbx
  401b24:	49 89 fc             	mov    %rdi,%r12
  401b27:	c7 05 f3 62 20 00 00 	movl   $0x0,0x2062f3(%rip)        # 607e24 <gets_cnt>
  401b2e:	00 00 00 
  401b31:	48 89 fb             	mov    %rdi,%rbx
  401b34:	eb 11                	jmp    401b47 <Gets+0x27>
  401b36:	48 8d 6b 01          	lea    0x1(%rbx),%rbp
  401b3a:	88 03                	mov    %al,(%rbx)
  401b3c:	0f b6 f8             	movzbl %al,%edi
  401b3f:	e8 3c ff ff ff       	callq  401a80 <save_char>
  401b44:	48 89 eb             	mov    %rbp,%rbx
  401b47:	48 8b 3d a2 56 20 00 	mov    0x2056a2(%rip),%rdi        # 6071f0 <infile>
  401b4e:	e8 9d f2 ff ff       	callq  400df0 <_IO_getc@plt>
  401b53:	83 f8 ff             	cmp    $0xffffffff,%eax
  401b56:	74 05                	je     401b5d <Gets+0x3d>
  401b58:	83 f8 0a             	cmp    $0xa,%eax
  401b5b:	75 d9                	jne    401b36 <Gets+0x16>
  401b5d:	c6 03 00             	movb   $0x0,(%rbx)
  401b60:	b8 00 00 00 00       	mov    $0x0,%eax
  401b65:	e8 6e ff ff ff       	callq  401ad8 <save_term>
  401b6a:	4c 89 e0             	mov    %r12,%rax
  401b6d:	5b                   	pop    %rbx
  401b6e:	5d                   	pop    %rbp
  401b6f:	41 5c                	pop    %r12
  401b71:	c3                   	retq   

0000000000401b72 <notify_server>:
  401b72:	53                   	push   %rbx
  401b73:	48 81 ec 30 40 00 00 	sub    $0x4030,%rsp
  401b7a:	64 48 8b 04 25 28 00 	mov    %fs:0x28,%rax
  401b81:	00 00 
  401b83:	48 89 84 24 28 40 00 	mov    %rax,0x4028(%rsp)
  401b8a:	00 
  401b8b:	31 c0                	xor    %eax,%eax
  401b8d:	83 3d 74 56 20 00 00 	cmpl   $0x0,0x205674(%rip)        # 607208 <is_checker>
  401b94:	0f 85 bb 01 00 00    	jne    401d55 <notify_server+0x1e3>
  401b9a:	89 fb                	mov    %edi,%ebx
  401b9c:	8b 05 82 62 20 00    	mov    0x206282(%rip),%eax        # 607e24 <gets_cnt>
  401ba2:	83 c0 64             	add    $0x64,%eax
  401ba5:	3d 00 20 00 00       	cmp    $0x2000,%eax
  401baa:	7e 1e                	jle    401bca <notify_server+0x58>
  401bac:	be 50 3f 40 00       	mov    $0x403f50,%esi
  401bb1:	bf 01 00 00 00       	mov    $0x1,%edi
  401bb6:	b8 00 00 00 00       	mov    $0x0,%eax
  401bbb:	e8 60 f2 ff ff       	callq  400e20 <__printf_chk@plt>
  401bc0:	bf 01 00 00 00       	mov    $0x1,%edi
  401bc5:	e8 a6 f2 ff ff       	callq  400e70 <exit@plt>
  401bca:	0f be 05 57 62 20 00 	movsbl 0x206257(%rip),%eax        # 607e28 <target_prefix>
  401bd1:	83 3d b0 55 20 00 00 	cmpl   $0x0,0x2055b0(%rip)        # 607188 <notify>
  401bd8:	74 08                	je     401be2 <notify_server+0x70>
  401bda:	8b 15 20 56 20 00    	mov    0x205620(%rip),%edx        # 607200 <authkey>
  401be0:	eb 05                	jmp    401be7 <notify_server+0x75>
  401be2:	ba ff ff ff ff       	mov    $0xffffffff,%edx
  401be7:	85 db                	test   %ebx,%ebx
  401be9:	74 08                	je     401bf3 <notify_server+0x81>
  401beb:	41 b9 31 3e 40 00    	mov    $0x403e31,%r9d
  401bf1:	eb 06                	jmp    401bf9 <notify_server+0x87>
  401bf3:	41 b9 36 3e 40 00    	mov    $0x403e36,%r9d
  401bf9:	48 c7 44 24 18 20 72 	movq   $0x607220,0x18(%rsp)
  401c00:	60 00 
  401c02:	89 74 24 10          	mov    %esi,0x10(%rsp)
  401c06:	89 44 24 08          	mov    %eax,0x8(%rsp)
  401c0a:	89 14 24             	mov    %edx,(%rsp)
  401c0d:	44 8b 05 54 35 20 00 	mov    0x203554(%rip),%r8d        # 605168 <target_id>
  401c14:	b9 3b 3e 40 00       	mov    $0x403e3b,%ecx
  401c19:	ba 00 20 00 00       	mov    $0x2000,%edx
  401c1e:	be 01 00 00 00       	mov    $0x1,%esi
  401c23:	48 8d 7c 24 20       	lea    0x20(%rsp),%rdi
  401c28:	b8 00 00 00 00       	mov    $0x0,%eax
  401c2d:	e8 6e f2 ff ff       	callq  400ea0 <__sprintf_chk@plt>
  401c32:	83 3d 4f 55 20 00 00 	cmpl   $0x0,0x20554f(%rip)        # 607188 <notify>
  401c39:	0f 84 86 00 00 00    	je     401cc5 <notify_server+0x153>
  401c3f:	85 db                	test   %ebx,%ebx
  401c41:	74 70                	je     401cb3 <notify_server+0x141>
  401c43:	4c 8d 8c 24 20 20 00 	lea    0x2020(%rsp),%r9
  401c4a:	00 
  401c4b:	41 b8 00 00 00 00    	mov    $0x0,%r8d
  401c51:	48 8d 4c 24 20       	lea    0x20(%rsp),%rcx
  401c56:	48 8b 15 13 35 20 00 	mov    0x203513(%rip),%rdx        # 605170 <lab>
  401c5d:	48 8b 35 14 35 20 00 	mov    0x203514(%rip),%rsi        # 605178 <course>
  401c64:	48 8b 3d f5 34 20 00 	mov    0x2034f5(%rip),%rdi        # 605160 <user_id>
  401c6b:	e8 be 10 00 00       	callq  402d2e <driver_post>
  401c70:	85 c0                	test   %eax,%eax
  401c72:	79 26                	jns    401c9a <notify_server+0x128>
  401c74:	48 8d 94 24 20 20 00 	lea    0x2020(%rsp),%rdx
  401c7b:	00 
  401c7c:	be 57 3e 40 00       	mov    $0x403e57,%esi
  401c81:	bf 01 00 00 00       	mov    $0x1,%edi
  401c86:	b8 00 00 00 00       	mov    $0x0,%eax
  401c8b:	e8 90 f1 ff ff       	callq  400e20 <__printf_chk@plt>
  401c90:	bf 01 00 00 00       	mov    $0x1,%edi
  401c95:	e8 d6 f1 ff ff       	callq  400e70 <exit@plt>
  401c9a:	bf 80 3f 40 00       	mov    $0x403f80,%edi
  401c9f:	e8 3c f0 ff ff       	callq  400ce0 <puts@plt>
  401ca4:	bf 63 3e 40 00       	mov    $0x403e63,%edi
  401ca9:	e8 32 f0 ff ff       	callq  400ce0 <puts@plt>
  401cae:	e9 a2 00 00 00       	jmpq   401d55 <notify_server+0x1e3>
  401cb3:	bf 6d 3e 40 00       	mov    $0x403e6d,%edi
  401cb8:	e8 23 f0 ff ff       	callq  400ce0 <puts@plt>
  401cbd:	0f 1f 00             	nopl   (%rax)
  401cc0:	e9 90 00 00 00       	jmpq   401d55 <notify_server+0x1e3>
  401cc5:	85 db                	test   %ebx,%ebx
  401cc7:	74 09                	je     401cd2 <notify_server+0x160>
  401cc9:	ba 31 3e 40 00       	mov    $0x403e31,%edx
  401cce:	66 90                	xchg   %ax,%ax
  401cd0:	eb 05                	jmp    401cd7 <notify_server+0x165>
  401cd2:	ba 36 3e 40 00       	mov    $0x403e36,%edx
  401cd7:	be b8 3f 40 00       	mov    $0x403fb8,%esi
  401cdc:	bf 01 00 00 00       	mov    $0x1,%edi
  401ce1:	b8 00 00 00 00       	mov    $0x0,%eax
  401ce6:	e8 35 f1 ff ff       	callq  400e20 <__printf_chk@plt>
  401ceb:	48 8b 15 6e 34 20 00 	mov    0x20346e(%rip),%rdx        # 605160 <user_id>
  401cf2:	be 74 3e 40 00       	mov    $0x403e74,%esi
  401cf7:	bf 01 00 00 00       	mov    $0x1,%edi
  401cfc:	b8 00 00 00 00       	mov    $0x0,%eax
  401d01:	e8 1a f1 ff ff       	callq  400e20 <__printf_chk@plt>
  401d06:	48 8b 15 6b 34 20 00 	mov    0x20346b(%rip),%rdx        # 605178 <course>
  401d0d:	be 81 3e 40 00       	mov    $0x403e81,%esi
  401d12:	bf 01 00 00 00       	mov    $0x1,%edi
  401d17:	b8 00 00 00 00       	mov    $0x0,%eax
  401d1c:	e8 ff f0 ff ff       	callq  400e20 <__printf_chk@plt>
  401d21:	48 8b 15 48 34 20 00 	mov    0x203448(%rip),%rdx        # 605170 <lab>
  401d28:	be 8d 3e 40 00       	mov    $0x403e8d,%esi
  401d2d:	bf 01 00 00 00       	mov    $0x1,%edi
  401d32:	b8 00 00 00 00       	mov    $0x0,%eax
  401d37:	e8 e4 f0 ff ff       	callq  400e20 <__printf_chk@plt>
  401d3c:	48 8d 54 24 20       	lea    0x20(%rsp),%rdx
  401d41:	be 96 3e 40 00       	mov    $0x403e96,%esi
  401d46:	bf 01 00 00 00       	mov    $0x1,%edi
  401d4b:	b8 00 00 00 00       	mov    $0x0,%eax
  401d50:	e8 cb f0 ff ff       	callq  400e20 <__printf_chk@plt>
  401d55:	48 8b 84 24 28 40 00 	mov    0x4028(%rsp),%rax
  401d5c:	00 
  401d5d:	64 48 33 04 25 28 00 	xor    %fs:0x28,%rax
  401d64:	00 00 
  401d66:	74 05                	je     401d6d <notify_server+0x1fb>
  401d68:	e8 93 ef ff ff       	callq  400d00 <__stack_chk_fail@plt>
  401d6d:	48 81 c4 30 40 00 00 	add    $0x4030,%rsp
  401d74:	5b                   	pop    %rbx
  401d75:	c3                   	retq   

0000000000401d76 <validate>:
  401d76:	53                   	push   %rbx
  401d77:	89 fb                	mov    %edi,%ebx
  401d79:	83 3d 88 54 20 00 00 	cmpl   $0x0,0x205488(%rip)        # 607208 <is_checker>
  401d80:	74 6b                	je     401ded <validate+0x77>
  401d82:	39 3d 74 54 20 00    	cmp    %edi,0x205474(%rip)        # 6071fc <vlevel>
  401d88:	74 14                	je     401d9e <validate+0x28>
  401d8a:	bf a2 3e 40 00       	mov    $0x403ea2,%edi
  401d8f:	e8 4c ef ff ff       	callq  400ce0 <puts@plt>
  401d94:	b8 00 00 00 00       	mov    $0x0,%eax
  401d99:	e8 4d fd ff ff       	callq  401aeb <check_fail>
  401d9e:	8b 15 54 54 20 00    	mov    0x205454(%rip),%edx        # 6071f8 <check_level>
  401da4:	39 fa                	cmp    %edi,%edx
  401da6:	74 20                	je     401dc8 <validate+0x52>
  401da8:	89 f9                	mov    %edi,%ecx
  401daa:	be e0 3f 40 00       	mov    $0x403fe0,%esi
  401daf:	bf 01 00 00 00       	mov    $0x1,%edi
  401db4:	b8 00 00 00 00       	mov    $0x0,%eax
  401db9:	e8 62 f0 ff ff       	callq  400e20 <__printf_chk@plt>
  401dbe:	b8 00 00 00 00       	mov    $0x0,%eax
  401dc3:	e8 23 fd ff ff       	callq  401aeb <check_fail>
  401dc8:	0f be 15 59 60 20 00 	movsbl 0x206059(%rip),%edx        # 607e28 <target_prefix>
  401dcf:	41 b8 20 72 60 00    	mov    $0x607220,%r8d
  401dd5:	89 f9                	mov    %edi,%ecx
  401dd7:	be c0 3e 40 00       	mov    $0x403ec0,%esi
  401ddc:	bf 01 00 00 00       	mov    $0x1,%edi
  401de1:	b8 00 00 00 00       	mov    $0x0,%eax
  401de6:	e8 35 f0 ff ff       	callq  400e20 <__printf_chk@plt>
  401deb:	eb 49                	jmp    401e36 <validate+0xc0>
  401ded:	39 3d 09 54 20 00    	cmp    %edi,0x205409(%rip)        # 6071fc <vlevel>
  401df3:	74 18                	je     401e0d <validate+0x97>
  401df5:	bf a2 3e 40 00       	mov    $0x403ea2,%edi
  401dfa:	e8 e1 ee ff ff       	callq  400ce0 <puts@plt>
  401dff:	89 de                	mov    %ebx,%esi
  401e01:	bf 00 00 00 00       	mov    $0x0,%edi
  401e06:	e8 67 fd ff ff       	callq  401b72 <notify_server>
  401e0b:	eb 29                	jmp    401e36 <validate+0xc0>
  401e0d:	0f be 0d 14 60 20 00 	movsbl 0x206014(%rip),%ecx        # 607e28 <target_prefix>
  401e14:	89 fa                	mov    %edi,%edx
  401e16:	be 08 40 40 00       	mov    $0x404008,%esi
  401e1b:	bf 01 00 00 00       	mov    $0x1,%edi
  401e20:	b8 00 00 00 00       	mov    $0x0,%eax
  401e25:	e8 f6 ef ff ff       	callq  400e20 <__printf_chk@plt>
  401e2a:	89 de                	mov    %ebx,%esi
  401e2c:	bf 01 00 00 00       	mov    $0x1,%edi
  401e31:	e8 3c fd ff ff       	callq  401b72 <notify_server>
  401e36:	5b                   	pop    %rbx
  401e37:	c3                   	retq   

0000000000401e38 <fail>:
  401e38:	48 83 ec 08          	sub    $0x8,%rsp
  401e3c:	83 3d c5 53 20 00 00 	cmpl   $0x0,0x2053c5(%rip)        # 607208 <is_checker>
  401e43:	74 0a                	je     401e4f <fail+0x17>
  401e45:	b8 00 00 00 00       	mov    $0x0,%eax
  401e4a:	e8 9c fc ff ff       	callq  401aeb <check_fail>
  401e4f:	89 fe                	mov    %edi,%esi
  401e51:	bf 00 00 00 00       	mov    $0x0,%edi
  401e56:	e8 17 fd ff ff       	callq  401b72 <notify_server>
  401e5b:	48 83 c4 08          	add    $0x8,%rsp
  401e5f:	c3                   	retq   

0000000000401e60 <bushandler>:
  401e60:	48 83 ec 08          	sub    $0x8,%rsp
  401e64:	83 3d 9d 53 20 00 00 	cmpl   $0x0,0x20539d(%rip)        # 607208 <is_checker>
  401e6b:	74 14                	je     401e81 <bushandler+0x21>
  401e6d:	bf d5 3e 40 00       	mov    $0x403ed5,%edi
  401e72:	e8 69 ee ff ff       	callq  400ce0 <puts@plt>
  401e77:	b8 00 00 00 00       	mov    $0x0,%eax
  401e7c:	e8 6a fc ff ff       	callq  401aeb <check_fail>
  401e81:	bf 40 40 40 00       	mov    $0x404040,%edi
  401e86:	e8 55 ee ff ff       	callq  400ce0 <puts@plt>
  401e8b:	bf df 3e 40 00       	mov    $0x403edf,%edi
  401e90:	e8 4b ee ff ff       	callq  400ce0 <puts@plt>
  401e95:	be 00 00 00 00       	mov    $0x0,%esi
  401e9a:	bf 00 00 00 00       	mov    $0x0,%edi
  401e9f:	e8 ce fc ff ff       	callq  401b72 <notify_server>
  401ea4:	bf 01 00 00 00       	mov    $0x1,%edi
  401ea9:	e8 c2 ef ff ff       	callq  400e70 <exit@plt>

0000000000401eae <seghandler>:
  401eae:	48 83 ec 08          	sub    $0x8,%rsp
  401eb2:	83 3d 4f 53 20 00 00 	cmpl   $0x0,0x20534f(%rip)        # 607208 <is_checker>
  401eb9:	74 14                	je     401ecf <seghandler+0x21>
  401ebb:	bf f5 3e 40 00       	mov    $0x403ef5,%edi
  401ec0:	e8 1b ee ff ff       	callq  400ce0 <puts@plt>
  401ec5:	b8 00 00 00 00       	mov    $0x0,%eax
  401eca:	e8 1c fc ff ff       	callq  401aeb <check_fail>
  401ecf:	bf 60 40 40 00       	mov    $0x404060,%edi
  401ed4:	e8 07 ee ff ff       	callq  400ce0 <puts@plt>
  401ed9:	bf df 3e 40 00       	mov    $0x403edf,%edi
  401ede:	e8 fd ed ff ff       	callq  400ce0 <puts@plt>
  401ee3:	be 00 00 00 00       	mov    $0x0,%esi
  401ee8:	bf 00 00 00 00       	mov    $0x0,%edi
  401eed:	e8 80 fc ff ff       	callq  401b72 <notify_server>
  401ef2:	bf 01 00 00 00       	mov    $0x1,%edi
  401ef7:	e8 74 ef ff ff       	callq  400e70 <exit@plt>

0000000000401efc <illegalhandler>:
  401efc:	48 83 ec 08          	sub    $0x8,%rsp
  401f00:	83 3d 01 53 20 00 00 	cmpl   $0x0,0x205301(%rip)        # 607208 <is_checker>
  401f07:	74 14                	je     401f1d <illegalhandler+0x21>
  401f09:	bf 08 3f 40 00       	mov    $0x403f08,%edi
  401f0e:	e8 cd ed ff ff       	callq  400ce0 <puts@plt>
  401f13:	b8 00 00 00 00       	mov    $0x0,%eax
  401f18:	e8 ce fb ff ff       	callq  401aeb <check_fail>
  401f1d:	bf 88 40 40 00       	mov    $0x404088,%edi
  401f22:	e8 b9 ed ff ff       	callq  400ce0 <puts@plt>
  401f27:	bf df 3e 40 00       	mov    $0x403edf,%edi
  401f2c:	e8 af ed ff ff       	callq  400ce0 <puts@plt>
  401f31:	be 00 00 00 00       	mov    $0x0,%esi
  401f36:	bf 00 00 00 00       	mov    $0x0,%edi
  401f3b:	e8 32 fc ff ff       	callq  401b72 <notify_server>
  401f40:	bf 01 00 00 00       	mov    $0x1,%edi
  401f45:	e8 26 ef ff ff       	callq  400e70 <exit@plt>

0000000000401f4a <sigalrmhandler>:
  401f4a:	48 83 ec 08          	sub    $0x8,%rsp
  401f4e:	83 3d b3 52 20 00 00 	cmpl   $0x0,0x2052b3(%rip)        # 607208 <is_checker>
  401f55:	74 14                	je     401f6b <sigalrmhandler+0x21>
  401f57:	bf 1c 3f 40 00       	mov    $0x403f1c,%edi
  401f5c:	e8 7f ed ff ff       	callq  400ce0 <puts@plt>
  401f61:	b8 00 00 00 00       	mov    $0x0,%eax
  401f66:	e8 80 fb ff ff       	callq  401aeb <check_fail>
  401f6b:	ba 05 00 00 00       	mov    $0x5,%edx
  401f70:	be b8 40 40 00       	mov    $0x4040b8,%esi
  401f75:	bf 01 00 00 00       	mov    $0x1,%edi
  401f7a:	b8 00 00 00 00       	mov    $0x0,%eax
  401f7f:	e8 9c ee ff ff       	callq  400e20 <__printf_chk@plt>
  401f84:	be 00 00 00 00       	mov    $0x0,%esi
  401f89:	bf 00 00 00 00       	mov    $0x0,%edi
  401f8e:	e8 df fb ff ff       	callq  401b72 <notify_server>
  401f93:	bf 01 00 00 00       	mov    $0x1,%edi
  401f98:	e8 d3 ee ff ff       	callq  400e70 <exit@plt>

0000000000401f9d <launch>:
  401f9d:	55                   	push   %rbp
  401f9e:	48 89 e5             	mov    %rsp,%rbp
  401fa1:	48 83 ec 10          	sub    $0x10,%rsp
  401fa5:	48 89 fa             	mov    %rdi,%rdx
  401fa8:	64 48 8b 04 25 28 00 	mov    %fs:0x28,%rax
  401faf:	00 00 
  401fb1:	48 89 45 f8          	mov    %rax,-0x8(%rbp)
  401fb5:	31 c0                	xor    %eax,%eax
  401fb7:	48 8d 47 1e          	lea    0x1e(%rdi),%rax
  401fbb:	48 83 e0 f0          	and    $0xfffffffffffffff0,%rax
  401fbf:	48 29 c4             	sub    %rax,%rsp
  401fc2:	48 8d 7c 24 0f       	lea    0xf(%rsp),%rdi
  401fc7:	48 83 e7 f0          	and    $0xfffffffffffffff0,%rdi
  401fcb:	be f4 00 00 00       	mov    $0xf4,%esi
  401fd0:	e8 4b ed ff ff       	callq  400d20 <memset@plt>
  401fd5:	48 8b 05 c4 51 20 00 	mov    0x2051c4(%rip),%rax        # 6071a0 <stdin@@GLIBC_2.2.5>
  401fdc:	48 39 05 0d 52 20 00 	cmp    %rax,0x20520d(%rip)        # 6071f0 <infile>
  401fe3:	75 14                	jne    401ff9 <launch+0x5c>
  401fe5:	be 24 3f 40 00       	mov    $0x403f24,%esi
  401fea:	bf 01 00 00 00       	mov    $0x1,%edi
  401fef:	b8 00 00 00 00       	mov    $0x0,%eax
  401ff4:	e8 27 ee ff ff       	callq  400e20 <__printf_chk@plt>
  401ff9:	c7 05 f9 51 20 00 00 	movl   $0x0,0x2051f9(%rip)        # 6071fc <vlevel>
  402000:	00 00 00 
  402003:	b8 00 00 00 00       	mov    $0x0,%eax
  402008:	e8 47 fa ff ff       	callq  401a54 <test>
  40200d:	83 3d f4 51 20 00 00 	cmpl   $0x0,0x2051f4(%rip)        # 607208 <is_checker>
  402014:	74 14                	je     40202a <launch+0x8d>
  402016:	bf 31 3f 40 00       	mov    $0x403f31,%edi
  40201b:	e8 c0 ec ff ff       	callq  400ce0 <puts@plt>
  402020:	b8 00 00 00 00       	mov    $0x0,%eax
  402025:	e8 c1 fa ff ff       	callq  401aeb <check_fail>
  40202a:	bf 3c 3f 40 00       	mov    $0x403f3c,%edi
  40202f:	e8 ac ec ff ff       	callq  400ce0 <puts@plt>
  402034:	48 8b 45 f8          	mov    -0x8(%rbp),%rax
  402038:	64 48 33 04 25 28 00 	xor    %fs:0x28,%rax
  40203f:	00 00 
  402041:	74 05                	je     402048 <launch+0xab>
  402043:	e8 b8 ec ff ff       	callq  400d00 <__stack_chk_fail@plt>
  402048:	c9                   	leaveq 
  402049:	c3                   	retq   

000000000040204a <stable_launch>:
  40204a:	53                   	push   %rbx
  40204b:	48 89 3d 96 51 20 00 	mov    %rdi,0x205196(%rip)        # 6071e8 <global_offset>
  402052:	41 b9 00 00 00 00    	mov    $0x0,%r9d
  402058:	41 b8 00 00 00 00    	mov    $0x0,%r8d
  40205e:	b9 32 01 00 00       	mov    $0x132,%ecx
  402063:	ba 07 00 00 00       	mov    $0x7,%edx
  402068:	be 00 00 10 00       	mov    $0x100000,%esi
  40206d:	bf 00 60 58 55       	mov    $0x55586000,%edi
  402072:	e8 99 ec ff ff       	callq  400d10 <mmap@plt>
  402077:	48 89 c3             	mov    %rax,%rbx
  40207a:	48 3d 00 60 58 55    	cmp    $0x55586000,%rax
  402080:	74 37                	je     4020b9 <stable_launch+0x6f>
  402082:	be 00 00 10 00       	mov    $0x100000,%esi
  402087:	48 89 c7             	mov    %rax,%rdi
  40208a:	e8 81 ed ff ff       	callq  400e10 <munmap@plt>
  40208f:	b9 00 60 58 55       	mov    $0x55586000,%ecx
  402094:	ba f0 40 40 00       	mov    $0x4040f0,%edx
  402099:	be 01 00 00 00       	mov    $0x1,%esi
  40209e:	48 8b 3d 23 51 20 00 	mov    0x205123(%rip),%rdi        # 6071c8 <stderr@@GLIBC_2.2.5>
  4020a5:	b8 00 00 00 00       	mov    $0x0,%eax
  4020aa:	e8 e1 ed ff ff       	callq  400e90 <__fprintf_chk@plt>
  4020af:	bf 01 00 00 00       	mov    $0x1,%edi
  4020b4:	e8 b7 ed ff ff       	callq  400e70 <exit@plt>
  4020b9:	48 8d 90 f8 ff 0f 00 	lea    0xffff8(%rax),%rdx
  4020c0:	48 89 15 69 5d 20 00 	mov    %rdx,0x205d69(%rip)        # 607e30 <stack_top>
  4020c7:	48 89 e0             	mov    %rsp,%rax
  4020ca:	48 89 d4             	mov    %rdx,%rsp
  4020cd:	48 89 c2             	mov    %rax,%rdx
  4020d0:	48 89 15 09 51 20 00 	mov    %rdx,0x205109(%rip)        # 6071e0 <global_save_stack>
  4020d7:	48 8b 3d 0a 51 20 00 	mov    0x20510a(%rip),%rdi        # 6071e8 <global_offset>
  4020de:	e8 ba fe ff ff       	callq  401f9d <launch>
  4020e3:	48 8b 05 f6 50 20 00 	mov    0x2050f6(%rip),%rax        # 6071e0 <global_save_stack>
  4020ea:	48 89 c4             	mov    %rax,%rsp
  4020ed:	be 00 00 10 00       	mov    $0x100000,%esi
  4020f2:	48 89 df             	mov    %rbx,%rdi
  4020f5:	e8 16 ed ff ff       	callq  400e10 <munmap@plt>
  4020fa:	5b                   	pop    %rbx
  4020fb:	c3                   	retq   
  4020fc:	0f 1f 40 00          	nopl   0x0(%rax)

0000000000402100 <rio_readinitb>:
  402100:	89 37                	mov    %esi,(%rdi)
  402102:	c7 47 04 00 00 00 00 	movl   $0x0,0x4(%rdi)
  402109:	48 8d 47 10          	lea    0x10(%rdi),%rax
  40210d:	48 89 47 08          	mov    %rax,0x8(%rdi)
  402111:	c3                   	retq   

0000000000402112 <sigalrm_handler>:
  402112:	48 83 ec 08          	sub    $0x8,%rsp
  402116:	b9 00 00 00 00       	mov    $0x0,%ecx
  40211b:	ba 30 41 40 00       	mov    $0x404130,%edx
  402120:	be 01 00 00 00       	mov    $0x1,%esi
  402125:	48 8b 3d 9c 50 20 00 	mov    0x20509c(%rip),%rdi        # 6071c8 <stderr@@GLIBC_2.2.5>
  40212c:	b8 00 00 00 00       	mov    $0x0,%eax
  402131:	e8 5a ed ff ff       	callq  400e90 <__fprintf_chk@plt>
  402136:	bf 01 00 00 00       	mov    $0x1,%edi
  40213b:	e8 30 ed ff ff       	callq  400e70 <exit@plt>

0000000000402140 <rio_writen>:
  402140:	41 55                	push   %r13
  402142:	41 54                	push   %r12
  402144:	55                   	push   %rbp
  402145:	53                   	push   %rbx
  402146:	48 83 ec 08          	sub    $0x8,%rsp
  40214a:	41 89 fc             	mov    %edi,%r12d
  40214d:	48 89 f5             	mov    %rsi,%rbp
  402150:	49 89 d5             	mov    %rdx,%r13
  402153:	48 89 d3             	mov    %rdx,%rbx
  402156:	eb 28                	jmp    402180 <rio_writen+0x40>
  402158:	48 89 da             	mov    %rbx,%rdx
  40215b:	48 89 ee             	mov    %rbp,%rsi
  40215e:	44 89 e7             	mov    %r12d,%edi
  402161:	e8 8a eb ff ff       	callq  400cf0 <write@plt>
  402166:	48 85 c0             	test   %rax,%rax
  402169:	7f 0f                	jg     40217a <rio_writen+0x3a>
  40216b:	e8 30 eb ff ff       	callq  400ca0 <__errno_location@plt>
  402170:	83 38 04             	cmpl   $0x4,(%rax)
  402173:	75 15                	jne    40218a <rio_writen+0x4a>
  402175:	b8 00 00 00 00       	mov    $0x0,%eax
  40217a:	48 29 c3             	sub    %rax,%rbx
  40217d:	48 01 c5             	add    %rax,%rbp
  402180:	48 85 db             	test   %rbx,%rbx
  402183:	75 d3                	jne    402158 <rio_writen+0x18>
  402185:	4c 89 e8             	mov    %r13,%rax
  402188:	eb 07                	jmp    402191 <rio_writen+0x51>
  40218a:	48 c7 c0 ff ff ff ff 	mov    $0xffffffffffffffff,%rax
  402191:	48 83 c4 08          	add    $0x8,%rsp
  402195:	5b                   	pop    %rbx
  402196:	5d                   	pop    %rbp
  402197:	41 5c                	pop    %r12
  402199:	41 5d                	pop    %r13
  40219b:	c3                   	retq   

000000000040219c <rio_read>:
  40219c:	41 56                	push   %r14
  40219e:	41 55                	push   %r13
  4021a0:	41 54                	push   %r12
  4021a2:	55                   	push   %rbp
  4021a3:	53                   	push   %rbx
  4021a4:	48 89 fb             	mov    %rdi,%rbx
  4021a7:	49 89 f6             	mov    %rsi,%r14
  4021aa:	49 89 d5             	mov    %rdx,%r13
  4021ad:	4c 8d 67 10          	lea    0x10(%rdi),%r12
  4021b1:	eb 2a                	jmp    4021dd <rio_read+0x41>
  4021b3:	8b 3b                	mov    (%rbx),%edi
  4021b5:	ba 00 20 00 00       	mov    $0x2000,%edx
  4021ba:	4c 89 e6             	mov    %r12,%rsi
  4021bd:	e8 8e eb ff ff       	callq  400d50 <read@plt>
  4021c2:	89 43 04             	mov    %eax,0x4(%rbx)
  4021c5:	85 c0                	test   %eax,%eax
  4021c7:	79 0c                	jns    4021d5 <rio_read+0x39>
  4021c9:	e8 d2 ea ff ff       	callq  400ca0 <__errno_location@plt>
  4021ce:	83 38 04             	cmpl   $0x4,(%rax)
  4021d1:	74 0a                	je     4021dd <rio_read+0x41>
  4021d3:	eb 37                	jmp    40220c <rio_read+0x70>
  4021d5:	85 c0                	test   %eax,%eax
  4021d7:	74 3c                	je     402215 <rio_read+0x79>
  4021d9:	4c 89 63 08          	mov    %r12,0x8(%rbx)
  4021dd:	8b 6b 04             	mov    0x4(%rbx),%ebp
  4021e0:	85 ed                	test   %ebp,%ebp
  4021e2:	7e cf                	jle    4021b3 <rio_read+0x17>
  4021e4:	89 e8                	mov    %ebp,%eax
  4021e6:	4c 39 e8             	cmp    %r13,%rax
  4021e9:	72 03                	jb     4021ee <rio_read+0x52>
  4021eb:	44 89 ed             	mov    %r13d,%ebp
  4021ee:	4c 63 e5             	movslq %ebp,%r12
  4021f1:	48 8b 73 08          	mov    0x8(%rbx),%rsi
  4021f5:	4c 89 e2             	mov    %r12,%rdx
  4021f8:	4c 89 f7             	mov    %r14,%rdi
  4021fb:	e8 c0 eb ff ff       	callq  400dc0 <memcpy@plt>
  402200:	4c 01 63 08          	add    %r12,0x8(%rbx)
  402204:	29 6b 04             	sub    %ebp,0x4(%rbx)
  402207:	4c 89 e0             	mov    %r12,%rax
  40220a:	eb 0e                	jmp    40221a <rio_read+0x7e>
  40220c:	48 c7 c0 ff ff ff ff 	mov    $0xffffffffffffffff,%rax
  402213:	eb 05                	jmp    40221a <rio_read+0x7e>
  402215:	b8 00 00 00 00       	mov    $0x0,%eax
  40221a:	5b                   	pop    %rbx
  40221b:	5d                   	pop    %rbp
  40221c:	41 5c                	pop    %r12
  40221e:	41 5d                	pop    %r13
  402220:	41 5e                	pop    %r14
  402222:	c3                   	retq   

0000000000402223 <rio_readlineb>:
  402223:	41 55                	push   %r13
  402225:	41 54                	push   %r12
  402227:	55                   	push   %rbp
  402228:	53                   	push   %rbx
  402229:	48 83 ec 18          	sub    $0x18,%rsp
  40222d:	49 89 fd             	mov    %rdi,%r13
  402230:	48 89 f5             	mov    %rsi,%rbp
  402233:	49 89 d4             	mov    %rdx,%r12
  402236:	bb 01 00 00 00       	mov    $0x1,%ebx
  40223b:	eb 3e                	jmp    40227b <rio_readlineb+0x58>
  40223d:	ba 01 00 00 00       	mov    $0x1,%edx
  402242:	48 8d 74 24 0f       	lea    0xf(%rsp),%rsi
  402247:	4c 89 ef             	mov    %r13,%rdi
  40224a:	e8 4d ff ff ff       	callq  40219c <rio_read>
  40224f:	83 f8 01             	cmp    $0x1,%eax
  402252:	75 12                	jne    402266 <rio_readlineb+0x43>
  402254:	48 8d 55 01          	lea    0x1(%rbp),%rdx
  402258:	0f b6 44 24 0f       	movzbl 0xf(%rsp),%eax
  40225d:	88 45 00             	mov    %al,0x0(%rbp)
  402260:	3c 0a                	cmp    $0xa,%al
  402262:	75 10                	jne    402274 <rio_readlineb+0x51>
  402264:	eb 1c                	jmp    402282 <rio_readlineb+0x5f>
  402266:	85 c0                	test   %eax,%eax
  402268:	75 24                	jne    40228e <rio_readlineb+0x6b>
  40226a:	48 83 fb 01          	cmp    $0x1,%rbx
  40226e:	66 90                	xchg   %ax,%ax
  402270:	75 13                	jne    402285 <rio_readlineb+0x62>
  402272:	eb 23                	jmp    402297 <rio_readlineb+0x74>
  402274:	48 83 c3 01          	add    $0x1,%rbx
  402278:	48 89 d5             	mov    %rdx,%rbp
  40227b:	4c 39 e3             	cmp    %r12,%rbx
  40227e:	72 bd                	jb     40223d <rio_readlineb+0x1a>
  402280:	eb 03                	jmp    402285 <rio_readlineb+0x62>
  402282:	48 89 d5             	mov    %rdx,%rbp
  402285:	c6 45 00 00          	movb   $0x0,0x0(%rbp)
  402289:	48 89 d8             	mov    %rbx,%rax
  40228c:	eb 0e                	jmp    40229c <rio_readlineb+0x79>
  40228e:	48 c7 c0 ff ff ff ff 	mov    $0xffffffffffffffff,%rax
  402295:	eb 05                	jmp    40229c <rio_readlineb+0x79>
  402297:	b8 00 00 00 00       	mov    $0x0,%eax
  40229c:	48 83 c4 18          	add    $0x18,%rsp
  4022a0:	5b                   	pop    %rbx
  4022a1:	5d                   	pop    %rbp
  4022a2:	41 5c                	pop    %r12
  4022a4:	41 5d                	pop    %r13
  4022a6:	c3                   	retq   

00000000004022a7 <urlencode>:
  4022a7:	41 54                	push   %r12
  4022a9:	55                   	push   %rbp
  4022aa:	53                   	push   %rbx
  4022ab:	48 83 ec 10          	sub    $0x10,%rsp
  4022af:	48 89 fb             	mov    %rdi,%rbx
  4022b2:	48 89 f5             	mov    %rsi,%rbp
  4022b5:	64 48 8b 04 25 28 00 	mov    %fs:0x28,%rax
  4022bc:	00 00 
  4022be:	48 89 44 24 08       	mov    %rax,0x8(%rsp)
  4022c3:	31 c0                	xor    %eax,%eax
  4022c5:	48 c7 c1 ff ff ff ff 	mov    $0xffffffffffffffff,%rcx
  4022cc:	f2 ae                	repnz scas %es:(%rdi),%al
  4022ce:	48 f7 d1             	not    %rcx
  4022d1:	8d 41 ff             	lea    -0x1(%rcx),%eax
  4022d4:	e9 aa 00 00 00       	jmpq   402383 <urlencode+0xdc>
  4022d9:	44 0f b6 03          	movzbl (%rbx),%r8d
  4022dd:	41 80 f8 2a          	cmp    $0x2a,%r8b
  4022e1:	0f 94 c2             	sete   %dl
  4022e4:	41 80 f8 2d          	cmp    $0x2d,%r8b
  4022e8:	0f 94 c0             	sete   %al
  4022eb:	08 c2                	or     %al,%dl
  4022ed:	75 24                	jne    402313 <urlencode+0x6c>
  4022ef:	41 80 f8 2e          	cmp    $0x2e,%r8b
  4022f3:	74 1e                	je     402313 <urlencode+0x6c>
  4022f5:	41 80 f8 5f          	cmp    $0x5f,%r8b
  4022f9:	74 18                	je     402313 <urlencode+0x6c>
  4022fb:	41 8d 40 d0          	lea    -0x30(%r8),%eax
  4022ff:	3c 09                	cmp    $0x9,%al
  402301:	76 10                	jbe    402313 <urlencode+0x6c>
  402303:	41 8d 40 bf          	lea    -0x41(%r8),%eax
  402307:	3c 19                	cmp    $0x19,%al
  402309:	76 08                	jbe    402313 <urlencode+0x6c>
  40230b:	41 8d 40 9f          	lea    -0x61(%r8),%eax
  40230f:	3c 19                	cmp    $0x19,%al
  402311:	77 0a                	ja     40231d <urlencode+0x76>
  402313:	44 88 45 00          	mov    %r8b,0x0(%rbp)
  402317:	48 8d 6d 01          	lea    0x1(%rbp),%rbp
  40231b:	eb 5f                	jmp    40237c <urlencode+0xd5>
  40231d:	41 80 f8 20          	cmp    $0x20,%r8b
  402321:	75 0a                	jne    40232d <urlencode+0x86>
  402323:	c6 45 00 2b          	movb   $0x2b,0x0(%rbp)
  402327:	48 8d 6d 01          	lea    0x1(%rbp),%rbp
  40232b:	eb 4f                	jmp    40237c <urlencode+0xd5>
  40232d:	41 8d 40 e0          	lea    -0x20(%r8),%eax
  402331:	3c 5f                	cmp    $0x5f,%al
  402333:	0f 96 c2             	setbe  %dl
  402336:	41 80 f8 09          	cmp    $0x9,%r8b
  40233a:	0f 94 c0             	sete   %al
  40233d:	08 c2                	or     %al,%dl
  40233f:	74 50                	je     402391 <urlencode+0xea>
  402341:	45 0f b6 c0          	movzbl %r8b,%r8d
  402345:	b9 c8 41 40 00       	mov    $0x4041c8,%ecx
  40234a:	ba 08 00 00 00       	mov    $0x8,%edx
  40234f:	be 01 00 00 00       	mov    $0x1,%esi
  402354:	48 89 e7             	mov    %rsp,%rdi
  402357:	b8 00 00 00 00       	mov    $0x0,%eax
  40235c:	e8 3f eb ff ff       	callq  400ea0 <__sprintf_chk@plt>
  402361:	0f b6 04 24          	movzbl (%rsp),%eax
  402365:	88 45 00             	mov    %al,0x0(%rbp)
  402368:	0f b6 44 24 01       	movzbl 0x1(%rsp),%eax
  40236d:	88 45 01             	mov    %al,0x1(%rbp)
  402370:	0f b6 44 24 02       	movzbl 0x2(%rsp),%eax
  402375:	88 45 02             	mov    %al,0x2(%rbp)
  402378:	48 8d 6d 03          	lea    0x3(%rbp),%rbp
  40237c:	48 83 c3 01          	add    $0x1,%rbx
  402380:	44 89 e0             	mov    %r12d,%eax
  402383:	44 8d 60 ff          	lea    -0x1(%rax),%r12d
  402387:	85 c0                	test   %eax,%eax
  402389:	0f 85 4a ff ff ff    	jne    4022d9 <urlencode+0x32>
  40238f:	eb 05                	jmp    402396 <urlencode+0xef>
  402391:	b8 ff ff ff ff       	mov    $0xffffffff,%eax
  402396:	48 8b 74 24 08       	mov    0x8(%rsp),%rsi
  40239b:	64 48 33 34 25 28 00 	xor    %fs:0x28,%rsi
  4023a2:	00 00 
  4023a4:	74 05                	je     4023ab <urlencode+0x104>
  4023a6:	e8 55 e9 ff ff       	callq  400d00 <__stack_chk_fail@plt>
  4023ab:	48 83 c4 10          	add    $0x10,%rsp
  4023af:	5b                   	pop    %rbx
  4023b0:	5d                   	pop    %rbp
  4023b1:	41 5c                	pop    %r12
  4023b3:	c3                   	retq   

00000000004023b4 <submitr>:
  4023b4:	41 57                	push   %r15
  4023b6:	41 56                	push   %r14
  4023b8:	41 55                	push   %r13
  4023ba:	41 54                	push   %r12
  4023bc:	55                   	push   %rbp
  4023bd:	53                   	push   %rbx
  4023be:	48 81 ec 68 a0 00 00 	sub    $0xa068,%rsp
  4023c5:	49 89 fc             	mov    %rdi,%r12
  4023c8:	89 74 24 14          	mov    %esi,0x14(%rsp)
  4023cc:	49 89 d7             	mov    %rdx,%r15
  4023cf:	49 89 ce             	mov    %rcx,%r14
  4023d2:	4c 89 44 24 18       	mov    %r8,0x18(%rsp)
  4023d7:	4d 89 cd             	mov    %r9,%r13
  4023da:	48 8b 9c 24 a0 a0 00 	mov    0xa0a0(%rsp),%rbx
  4023e1:	00 
  4023e2:	64 48 8b 04 25 28 00 	mov    %fs:0x28,%rax
  4023e9:	00 00 
  4023eb:	48 89 84 24 58 a0 00 	mov    %rax,0xa058(%rsp)
  4023f2:	00 
  4023f3:	31 c0                	xor    %eax,%eax
  4023f5:	c7 44 24 2c 00 00 00 	movl   $0x0,0x2c(%rsp)
  4023fc:	00 
  4023fd:	ba 00 00 00 00       	mov    $0x0,%edx
  402402:	be 01 00 00 00       	mov    $0x1,%esi
  402407:	bf 02 00 00 00       	mov    $0x2,%edi
  40240c:	e8 9f ea ff ff       	callq  400eb0 <socket@plt>
  402411:	89 c5                	mov    %eax,%ebp
  402413:	85 c0                	test   %eax,%eax
  402415:	79 4e                	jns    402465 <submitr+0xb1>
  402417:	48 b8 45 72 72 6f 72 	movabs $0x43203a726f727245,%rax
  40241e:	3a 20 43 
  402421:	48 89 03             	mov    %rax,(%rbx)
  402424:	48 b8 6c 69 65 6e 74 	movabs $0x6e7520746e65696c,%rax
  40242b:	20 75 6e 
  40242e:	48 89 43 08          	mov    %rax,0x8(%rbx)
  402432:	48 b8 61 62 6c 65 20 	movabs $0x206f7420656c6261,%rax
  402439:	74 6f 20 
  40243c:	48 89 43 10          	mov    %rax,0x10(%rbx)
  402440:	48 b8 63 72 65 61 74 	movabs $0x7320657461657263,%rax
  402447:	65 20 73 
  40244a:	48 89 43 18          	mov    %rax,0x18(%rbx)
  40244e:	c7 43 20 6f 63 6b 65 	movl   $0x656b636f,0x20(%rbx)
  402455:	66 c7 43 24 74 00    	movw   $0x74,0x24(%rbx)
  40245b:	b8 ff ff ff ff       	mov    $0xffffffff,%eax
  402460:	e9 84 06 00 00       	jmpq   402ae9 <submitr+0x735>
  402465:	4c 89 e7             	mov    %r12,%rdi
  402468:	e8 13 e9 ff ff       	callq  400d80 <gethostbyname@plt>
  40246d:	48 85 c0             	test   %rax,%rax
  402470:	75 67                	jne    4024d9 <submitr+0x125>
  402472:	48 b8 45 72 72 6f 72 	movabs $0x44203a726f727245,%rax
  402479:	3a 20 44 
  40247c:	48 89 03             	mov    %rax,(%rbx)
  40247f:	48 b8 4e 53 20 69 73 	movabs $0x6e7520736920534e,%rax
  402486:	20 75 6e 
  402489:	48 89 43 08          	mov    %rax,0x8(%rbx)
  40248d:	48 b8 61 62 6c 65 20 	movabs $0x206f7420656c6261,%rax
  402494:	74 6f 20 
  402497:	48 89 43 10          	mov    %rax,0x10(%rbx)
  40249b:	48 b8 72 65 73 6f 6c 	movabs $0x2065766c6f736572,%rax
  4024a2:	76 65 20 
  4024a5:	48 89 43 18          	mov    %rax,0x18(%rbx)
  4024a9:	48 b8 73 65 72 76 65 	movabs $0x6120726576726573,%rax
  4024b0:	72 20 61 
  4024b3:	48 89 43 20          	mov    %rax,0x20(%rbx)
  4024b7:	c7 43 28 64 64 72 65 	movl   $0x65726464,0x28(%rbx)
  4024be:	66 c7 43 2c 73 73    	movw   $0x7373,0x2c(%rbx)
  4024c4:	c6 43 2e 00          	movb   $0x0,0x2e(%rbx)
  4024c8:	89 ef                	mov    %ebp,%edi
  4024ca:	e8 71 e8 ff ff       	callq  400d40 <close@plt>
  4024cf:	b8 ff ff ff ff       	mov    $0xffffffff,%eax
  4024d4:	e9 10 06 00 00       	jmpq   402ae9 <submitr+0x735>
  4024d9:	48 c7 44 24 30 00 00 	movq   $0x0,0x30(%rsp)
  4024e0:	00 00 
  4024e2:	48 c7 44 24 38 00 00 	movq   $0x0,0x38(%rsp)
  4024e9:	00 00 
  4024eb:	66 c7 44 24 30 02 00 	movw   $0x2,0x30(%rsp)
  4024f2:	48 63 50 14          	movslq 0x14(%rax),%rdx
  4024f6:	48 8b 40 18          	mov    0x18(%rax),%rax
  4024fa:	48 8b 30             	mov    (%rax),%rsi
  4024fd:	48 8d 7c 24 34       	lea    0x34(%rsp),%rdi
  402502:	b9 0c 00 00 00       	mov    $0xc,%ecx
  402507:	e8 84 e8 ff ff       	callq  400d90 <__memmove_chk@plt>
  40250c:	0f b7 44 24 14       	movzwl 0x14(%rsp),%eax
  402511:	66 c1 c8 08          	ror    $0x8,%ax
  402515:	66 89 44 24 32       	mov    %ax,0x32(%rsp)
  40251a:	ba 10 00 00 00       	mov    $0x10,%edx
  40251f:	48 8d 74 24 30       	lea    0x30(%rsp),%rsi
  402524:	89 ef                	mov    %ebp,%edi
  402526:	e8 55 e9 ff ff       	callq  400e80 <connect@plt>
  40252b:	85 c0                	test   %eax,%eax
  40252d:	79 59                	jns    402588 <submitr+0x1d4>
  40252f:	48 b8 45 72 72 6f 72 	movabs $0x55203a726f727245,%rax
  402536:	3a 20 55 
  402539:	48 89 03             	mov    %rax,(%rbx)
  40253c:	48 b8 6e 61 62 6c 65 	movabs $0x6f7420656c62616e,%rax
  402543:	20 74 6f 
  402546:	48 89 43 08          	mov    %rax,0x8(%rbx)
  40254a:	48 b8 20 63 6f 6e 6e 	movabs $0x7463656e6e6f6320,%rax
  402551:	65 63 74 
  402554:	48 89 43 10          	mov    %rax,0x10(%rbx)
  402558:	48 b8 20 74 6f 20 74 	movabs $0x20656874206f7420,%rax
  40255f:	68 65 20 
  402562:	48 89 43 18          	mov    %rax,0x18(%rbx)
  402566:	c7 43 20 73 65 72 76 	movl   $0x76726573,0x20(%rbx)
  40256d:	66 c7 43 24 65 72    	movw   $0x7265,0x24(%rbx)
  402573:	c6 43 26 00          	movb   $0x0,0x26(%rbx)
  402577:	89 ef                	mov    %ebp,%edi
  402579:	e8 c2 e7 ff ff       	callq  400d40 <close@plt>
  40257e:	b8 ff ff ff ff       	mov    $0xffffffff,%eax
  402583:	e9 61 05 00 00       	jmpq   402ae9 <submitr+0x735>
  402588:	48 c7 c2 ff ff ff ff 	mov    $0xffffffffffffffff,%rdx
  40258f:	4c 89 ef             	mov    %r13,%rdi
  402592:	b8 00 00 00 00       	mov    $0x0,%eax
  402597:	48 89 d1             	mov    %rdx,%rcx
  40259a:	f2 ae                	repnz scas %es:(%rdi),%al
  40259c:	48 f7 d1             	not    %rcx
  40259f:	48 89 ce             	mov    %rcx,%rsi
  4025a2:	4c 89 ff             	mov    %r15,%rdi
  4025a5:	48 89 d1             	mov    %rdx,%rcx
  4025a8:	f2 ae                	repnz scas %es:(%rdi),%al
  4025aa:	48 f7 d1             	not    %rcx
  4025ad:	49 89 c8             	mov    %rcx,%r8
  4025b0:	4c 89 f7             	mov    %r14,%rdi
  4025b3:	48 89 d1             	mov    %rdx,%rcx
  4025b6:	f2 ae                	repnz scas %es:(%rdi),%al
  4025b8:	49 29 c8             	sub    %rcx,%r8
  4025bb:	48 8b 7c 24 18       	mov    0x18(%rsp),%rdi
  4025c0:	48 89 d1             	mov    %rdx,%rcx
  4025c3:	f2 ae                	repnz scas %es:(%rdi),%al
  4025c5:	49 29 c8             	sub    %rcx,%r8
  4025c8:	48 8d 44 76 fd       	lea    -0x3(%rsi,%rsi,2),%rax
  4025cd:	49 8d 44 00 7b       	lea    0x7b(%r8,%rax,1),%rax
  4025d2:	48 3d 00 20 00 00    	cmp    $0x2000,%rax
  4025d8:	76 72                	jbe    40264c <submitr+0x298>
  4025da:	48 b8 45 72 72 6f 72 	movabs $0x52203a726f727245,%rax
  4025e1:	3a 20 52 
  4025e4:	48 89 03             	mov    %rax,(%rbx)
  4025e7:	48 b8 65 73 75 6c 74 	movabs $0x747320746c757365,%rax
  4025ee:	20 73 74 
  4025f1:	48 89 43 08          	mov    %rax,0x8(%rbx)
  4025f5:	48 b8 72 69 6e 67 20 	movabs $0x6f6f7420676e6972,%rax
  4025fc:	74 6f 6f 
  4025ff:	48 89 43 10          	mov    %rax,0x10(%rbx)
  402603:	48 b8 20 6c 61 72 67 	movabs $0x202e656772616c20,%rax
  40260a:	65 2e 20 
  40260d:	48 89 43 18          	mov    %rax,0x18(%rbx)
  402611:	48 b8 49 6e 63 72 65 	movabs $0x6573616572636e49,%rax
  402618:	61 73 65 
  40261b:	48 89 43 20          	mov    %rax,0x20(%rbx)
  40261f:	48 b8 20 53 55 42 4d 	movabs $0x5254494d42555320,%rax
  402626:	49 54 52 
  402629:	48 89 43 28          	mov    %rax,0x28(%rbx)
  40262d:	48 b8 5f 4d 41 58 42 	movabs $0x46554258414d5f,%rax
  402634:	55 46 00 
  402637:	48 89 43 30          	mov    %rax,0x30(%rbx)
  40263b:	89 ef                	mov    %ebp,%edi
  40263d:	e8 fe e6 ff ff       	callq  400d40 <close@plt>
  402642:	b8 ff ff ff ff       	mov    $0xffffffff,%eax
  402647:	e9 9d 04 00 00       	jmpq   402ae9 <submitr+0x735>
  40264c:	48 8d b4 24 40 20 00 	lea    0x2040(%rsp),%rsi
  402653:	00 
  402654:	b9 00 04 00 00       	mov    $0x400,%ecx
  402659:	b8 00 00 00 00       	mov    $0x0,%eax
  40265e:	48 89 f7             	mov    %rsi,%rdi
  402661:	f3 48 ab             	rep stos %rax,%es:(%rdi)
  402664:	4c 89 ef             	mov    %r13,%rdi
  402667:	e8 3b fc ff ff       	callq  4022a7 <urlencode>
  40266c:	85 c0                	test   %eax,%eax
  40266e:	0f 89 8a 00 00 00    	jns    4026fe <submitr+0x34a>
  402674:	48 b8 45 72 72 6f 72 	movabs $0x52203a726f727245,%rax
  40267b:	3a 20 52 
  40267e:	48 89 03             	mov    %rax,(%rbx)
  402681:	48 b8 65 73 75 6c 74 	movabs $0x747320746c757365,%rax
  402688:	20 73 74 
  40268b:	48 89 43 08          	mov    %rax,0x8(%rbx)
  40268f:	48 b8 72 69 6e 67 20 	movabs $0x6e6f6320676e6972,%rax
  402696:	63 6f 6e 
  402699:	48 89 43 10          	mov    %rax,0x10(%rbx)
  40269d:	48 b8 74 61 69 6e 73 	movabs $0x6e6120736e696174,%rax
  4026a4:	20 61 6e 
  4026a7:	48 89 43 18          	mov    %rax,0x18(%rbx)
  4026ab:	48 b8 20 69 6c 6c 65 	movabs $0x6c6167656c6c6920,%rax
  4026b2:	67 61 6c 
  4026b5:	48 89 43 20          	mov    %rax,0x20(%rbx)
  4026b9:	48 b8 20 6f 72 20 75 	movabs $0x72706e7520726f20,%rax
  4026c0:	6e 70 72 
  4026c3:	48 89 43 28          	mov    %rax,0x28(%rbx)
  4026c7:	48 b8 69 6e 74 61 62 	movabs $0x20656c6261746e69,%rax
  4026ce:	6c 65 20 
  4026d1:	48 89 43 30          	mov    %rax,0x30(%rbx)
  4026d5:	48 b8 63 68 61 72 61 	movabs $0x6574636172616863,%rax
  4026dc:	63 74 65 
  4026df:	48 89 43 38          	mov    %rax,0x38(%rbx)
  4026e3:	66 c7 43 40 72 2e    	movw   $0x2e72,0x40(%rbx)
  4026e9:	c6 43 42 00          	movb   $0x0,0x42(%rbx)
  4026ed:	89 ef                	mov    %ebp,%edi
  4026ef:	e8 4c e6 ff ff       	callq  400d40 <close@plt>
  4026f4:	b8 ff ff ff ff       	mov    $0xffffffff,%eax
  4026f9:	e9 eb 03 00 00       	jmpq   402ae9 <submitr+0x735>
  4026fe:	4c 89 64 24 08       	mov    %r12,0x8(%rsp)
  402703:	48 8d 84 24 40 20 00 	lea    0x2040(%rsp),%rax
  40270a:	00 
  40270b:	48 89 04 24          	mov    %rax,(%rsp)
  40270f:	4d 89 f9             	mov    %r15,%r9
  402712:	4d 89 f0             	mov    %r14,%r8
  402715:	b9 58 41 40 00       	mov    $0x404158,%ecx
  40271a:	ba 00 20 00 00       	mov    $0x2000,%edx
  40271f:	be 01 00 00 00       	mov    $0x1,%esi
  402724:	48 8d 7c 24 40       	lea    0x40(%rsp),%rdi
  402729:	b8 00 00 00 00       	mov    $0x0,%eax
  40272e:	e8 6d e7 ff ff       	callq  400ea0 <__sprintf_chk@plt>
  402733:	48 8d 7c 24 40       	lea    0x40(%rsp),%rdi
  402738:	b8 00 00 00 00       	mov    $0x0,%eax
  40273d:	48 c7 c1 ff ff ff ff 	mov    $0xffffffffffffffff,%rcx
  402744:	f2 ae                	repnz scas %es:(%rdi),%al
  402746:	48 f7 d1             	not    %rcx
  402749:	48 8d 51 ff          	lea    -0x1(%rcx),%rdx
  40274d:	48 8d 74 24 40       	lea    0x40(%rsp),%rsi
  402752:	89 ef                	mov    %ebp,%edi
  402754:	e8 e7 f9 ff ff       	callq  402140 <rio_writen>
  402759:	48 85 c0             	test   %rax,%rax
  40275c:	79 6e                	jns    4027cc <submitr+0x418>
  40275e:	48 b8 45 72 72 6f 72 	movabs $0x43203a726f727245,%rax
  402765:	3a 20 43 
  402768:	48 89 03             	mov    %rax,(%rbx)
  40276b:	48 b8 6c 69 65 6e 74 	movabs $0x6e7520746e65696c,%rax
  402772:	20 75 6e 
  402775:	48 89 43 08          	mov    %rax,0x8(%rbx)
  402779:	48 b8 61 62 6c 65 20 	movabs $0x206f7420656c6261,%rax
  402780:	74 6f 20 
  402783:	48 89 43 10          	mov    %rax,0x10(%rbx)
  402787:	48 b8 77 72 69 74 65 	movabs $0x6f74206574697277,%rax
  40278e:	20 74 6f 
  402791:	48 89 43 18          	mov    %rax,0x18(%rbx)
  402795:	48 b8 20 74 68 65 20 	movabs $0x7365722065687420,%rax
  40279c:	72 65 73 
  40279f:	48 89 43 20          	mov    %rax,0x20(%rbx)
  4027a3:	48 b8 75 6c 74 20 73 	movabs $0x7672657320746c75,%rax
  4027aa:	65 72 76 
  4027ad:	48 89 43 28          	mov    %rax,0x28(%rbx)
  4027b1:	66 c7 43 30 65 72    	movw   $0x7265,0x30(%rbx)
  4027b7:	c6 43 32 00          	movb   $0x0,0x32(%rbx)
  4027bb:	89 ef                	mov    %ebp,%edi
  4027bd:	e8 7e e5 ff ff       	callq  400d40 <close@plt>
  4027c2:	b8 ff ff ff ff       	mov    $0xffffffff,%eax
  4027c7:	e9 1d 03 00 00       	jmpq   402ae9 <submitr+0x735>
  4027cc:	89 ee                	mov    %ebp,%esi
  4027ce:	48 8d bc 24 40 80 00 	lea    0x8040(%rsp),%rdi
  4027d5:	00 
  4027d6:	e8 25 f9 ff ff       	callq  402100 <rio_readinitb>
  4027db:	ba 00 20 00 00       	mov    $0x2000,%edx
  4027e0:	48 8d 74 24 40       	lea    0x40(%rsp),%rsi
  4027e5:	48 8d bc 24 40 80 00 	lea    0x8040(%rsp),%rdi
  4027ec:	00 
  4027ed:	e8 31 fa ff ff       	callq  402223 <rio_readlineb>
  4027f2:	48 85 c0             	test   %rax,%rax
  4027f5:	7f 7d                	jg     402874 <submitr+0x4c0>
  4027f7:	48 b8 45 72 72 6f 72 	movabs $0x43203a726f727245,%rax
  4027fe:	3a 20 43 
  402801:	48 89 03             	mov    %rax,(%rbx)
  402804:	48 b8 6c 69 65 6e 74 	movabs $0x6e7520746e65696c,%rax
  40280b:	20 75 6e 
  40280e:	48 89 43 08          	mov    %rax,0x8(%rbx)
  402812:	48 b8 61 62 6c 65 20 	movabs $0x206f7420656c6261,%rax
  402819:	74 6f 20 
  40281c:	48 89 43 10          	mov    %rax,0x10(%rbx)
  402820:	48 b8 72 65 61 64 20 	movabs $0x7269662064616572,%rax
  402827:	66 69 72 
  40282a:	48 89 43 18          	mov    %rax,0x18(%rbx)
  40282e:	48 b8 73 74 20 68 65 	movabs $0x6564616568207473,%rax
  402835:	61 64 65 
  402838:	48 89 43 20          	mov    %rax,0x20(%rbx)
  40283c:	48 b8 72 20 66 72 6f 	movabs $0x72206d6f72662072,%rax
  402843:	6d 20 72 
  402846:	48 89 43 28          	mov    %rax,0x28(%rbx)
  40284a:	48 b8 65 73 75 6c 74 	movabs $0x657320746c757365,%rax
  402851:	20 73 65 
  402854:	48 89 43 30          	mov    %rax,0x30(%rbx)
  402858:	c7 43 38 72 76 65 72 	movl   $0x72657672,0x38(%rbx)
  40285f:	c6 43 3c 00          	movb   $0x0,0x3c(%rbx)
  402863:	89 ef                	mov    %ebp,%edi
  402865:	e8 d6 e4 ff ff       	callq  400d40 <close@plt>
  40286a:	b8 ff ff ff ff       	mov    $0xffffffff,%eax
  40286f:	e9 75 02 00 00       	jmpq   402ae9 <submitr+0x735>
  402874:	4c 8d 84 24 40 60 00 	lea    0x6040(%rsp),%r8
  40287b:	00 
  40287c:	48 8d 4c 24 2c       	lea    0x2c(%rsp),%rcx
  402881:	48 8d 94 24 40 40 00 	lea    0x4040(%rsp),%rdx
  402888:	00 
  402889:	be cf 41 40 00       	mov    $0x4041cf,%esi
  40288e:	48 8d 7c 24 40       	lea    0x40(%rsp),%rdi
  402893:	b8 00 00 00 00       	mov    $0x0,%eax
  402898:	e8 63 e5 ff ff       	callq  400e00 <__isoc99_sscanf@plt>
  40289d:	41 bc 0d 00 00 00    	mov    $0xd,%r12d
  4028a3:	41 bd 0a 00 00 00    	mov    $0xa,%r13d
  4028a9:	e9 95 00 00 00       	jmpq   402943 <submitr+0x58f>
  4028ae:	ba 00 20 00 00       	mov    $0x2000,%edx
  4028b3:	48 8d 74 24 40       	lea    0x40(%rsp),%rsi
  4028b8:	48 8d bc 24 40 80 00 	lea    0x8040(%rsp),%rdi
  4028bf:	00 
  4028c0:	e8 5e f9 ff ff       	callq  402223 <rio_readlineb>
  4028c5:	48 85 c0             	test   %rax,%rax
  4028c8:	7f 79                	jg     402943 <submitr+0x58f>
  4028ca:	48 b8 45 72 72 6f 72 	movabs $0x43203a726f727245,%rax
  4028d1:	3a 20 43 
  4028d4:	48 89 03             	mov    %rax,(%rbx)
  4028d7:	48 b8 6c 69 65 6e 74 	movabs $0x6e7520746e65696c,%rax
  4028de:	20 75 6e 
  4028e1:	48 89 43 08          	mov    %rax,0x8(%rbx)
  4028e5:	48 b8 61 62 6c 65 20 	movabs $0x206f7420656c6261,%rax
  4028ec:	74 6f 20 
  4028ef:	48 89 43 10          	mov    %rax,0x10(%rbx)
  4028f3:	48 b8 72 65 61 64 20 	movabs $0x6165682064616572,%rax
  4028fa:	68 65 61 
  4028fd:	48 89 43 18          	mov    %rax,0x18(%rbx)
  402901:	48 b8 64 65 72 73 20 	movabs $0x6f72662073726564,%rax
  402908:	66 72 6f 
  40290b:	48 89 43 20          	mov    %rax,0x20(%rbx)
  40290f:	48 b8 6d 20 74 68 65 	movabs $0x657220656874206d,%rax
  402916:	20 72 65 
  402919:	48 89 43 28          	mov    %rax,0x28(%rbx)
  40291d:	48 b8 73 75 6c 74 20 	movabs $0x72657320746c7573,%rax
  402924:	73 65 72 
  402927:	48 89 43 30          	mov    %rax,0x30(%rbx)
  40292b:	c7 43 38 76 65 72 00 	movl   $0x726576,0x38(%rbx)
  402932:	89 ef                	mov    %ebp,%edi
  402934:	e8 07 e4 ff ff       	callq  400d40 <close@plt>
  402939:	b8 ff ff ff ff       	mov    $0xffffffff,%eax
  40293e:	e9 a6 01 00 00       	jmpq   402ae9 <submitr+0x735>
  402943:	0f b6 44 24 40       	movzbl 0x40(%rsp),%eax
  402948:	44 89 e6             	mov    %r12d,%esi
  40294b:	29 c6                	sub    %eax,%esi
  40294d:	89 f0                	mov    %esi,%eax
  40294f:	75 15                	jne    402966 <submitr+0x5b2>
  402951:	0f b6 44 24 41       	movzbl 0x41(%rsp),%eax
  402956:	44 89 ea             	mov    %r13d,%edx
  402959:	29 c2                	sub    %eax,%edx
  40295b:	89 d0                	mov    %edx,%eax
  40295d:	75 07                	jne    402966 <submitr+0x5b2>
  40295f:	0f b6 44 24 42       	movzbl 0x42(%rsp),%eax
  402964:	f7 d8                	neg    %eax
  402966:	85 c0                	test   %eax,%eax
  402968:	0f 85 40 ff ff ff    	jne    4028ae <submitr+0x4fa>
  40296e:	ba 00 20 00 00       	mov    $0x2000,%edx
  402973:	48 8d 74 24 40       	lea    0x40(%rsp),%rsi
  402978:	48 8d bc 24 40 80 00 	lea    0x8040(%rsp),%rdi
  40297f:	00 
  402980:	e8 9e f8 ff ff       	callq  402223 <rio_readlineb>
  402985:	48 85 c0             	test   %rax,%rax
  402988:	0f 8f 83 00 00 00    	jg     402a11 <submitr+0x65d>
  40298e:	48 b8 45 72 72 6f 72 	movabs $0x43203a726f727245,%rax
  402995:	3a 20 43 
  402998:	48 89 03             	mov    %rax,(%rbx)
  40299b:	48 b8 6c 69 65 6e 74 	movabs $0x6e7520746e65696c,%rax
  4029a2:	20 75 6e 
  4029a5:	48 89 43 08          	mov    %rax,0x8(%rbx)
  4029a9:	48 b8 61 62 6c 65 20 	movabs $0x206f7420656c6261,%rax
  4029b0:	74 6f 20 
  4029b3:	48 89 43 10          	mov    %rax,0x10(%rbx)
  4029b7:	48 b8 72 65 61 64 20 	movabs $0x6174732064616572,%rax
  4029be:	73 74 61 
  4029c1:	48 89 43 18          	mov    %rax,0x18(%rbx)
  4029c5:	48 b8 74 75 73 20 6d 	movabs $0x7373656d20737574,%rax
  4029cc:	65 73 73 
  4029cf:	48 89 43 20          	mov    %rax,0x20(%rbx)
  4029d3:	48 b8 61 67 65 20 66 	movabs $0x6d6f726620656761,%rax
  4029da:	72 6f 6d 
  4029dd:	48 89 43 28          	mov    %rax,0x28(%rbx)
  4029e1:	48 b8 20 72 65 73 75 	movabs $0x20746c7573657220,%rax
  4029e8:	6c 74 20 
  4029eb:	48 89 43 30          	mov    %rax,0x30(%rbx)
  4029ef:	c7 43 38 73 65 72 76 	movl   $0x76726573,0x38(%rbx)
  4029f6:	66 c7 43 3c 65 72    	movw   $0x7265,0x3c(%rbx)
  4029fc:	c6 43 3e 00          	movb   $0x0,0x3e(%rbx)
  402a00:	89 ef                	mov    %ebp,%edi
  402a02:	e8 39 e3 ff ff       	callq  400d40 <close@plt>
  402a07:	b8 ff ff ff ff       	mov    $0xffffffff,%eax
  402a0c:	e9 d8 00 00 00       	jmpq   402ae9 <submitr+0x735>
  402a11:	44 8b 44 24 2c       	mov    0x2c(%rsp),%r8d
  402a16:	41 81 f8 c8 00 00 00 	cmp    $0xc8,%r8d
  402a1d:	74 37                	je     402a56 <submitr+0x6a2>
  402a1f:	4c 8d 8c 24 40 60 00 	lea    0x6040(%rsp),%r9
  402a26:	00 
  402a27:	b9 98 41 40 00       	mov    $0x404198,%ecx
  402a2c:	48 c7 c2 ff ff ff ff 	mov    $0xffffffffffffffff,%rdx
  402a33:	be 01 00 00 00       	mov    $0x1,%esi
  402a38:	48 89 df             	mov    %rbx,%rdi
  402a3b:	b8 00 00 00 00       	mov    $0x0,%eax
  402a40:	e8 5b e4 ff ff       	callq  400ea0 <__sprintf_chk@plt>
  402a45:	89 ef                	mov    %ebp,%edi
  402a47:	e8 f4 e2 ff ff       	callq  400d40 <close@plt>
  402a4c:	b8 ff ff ff ff       	mov    $0xffffffff,%eax
  402a51:	e9 93 00 00 00       	jmpq   402ae9 <submitr+0x735>
  402a56:	48 8d 74 24 40       	lea    0x40(%rsp),%rsi
  402a5b:	48 89 df             	mov    %rbx,%rdi
  402a5e:	e8 6d e2 ff ff       	callq  400cd0 <strcpy@plt>
  402a63:	89 ef                	mov    %ebp,%edi
  402a65:	e8 d6 e2 ff ff       	callq  400d40 <close@plt>
  402a6a:	0f b6 03             	movzbl (%rbx),%eax
  402a6d:	ba 4f 00 00 00       	mov    $0x4f,%edx
  402a72:	29 c2                	sub    %eax,%edx
  402a74:	75 22                	jne    402a98 <submitr+0x6e4>
  402a76:	0f b6 4b 01          	movzbl 0x1(%rbx),%ecx
  402a7a:	b8 4b 00 00 00       	mov    $0x4b,%eax
  402a7f:	29 c8                	sub    %ecx,%eax
  402a81:	75 17                	jne    402a9a <submitr+0x6e6>
  402a83:	0f b6 4b 02          	movzbl 0x2(%rbx),%ecx
  402a87:	b8 0a 00 00 00       	mov    $0xa,%eax
  402a8c:	29 c8                	sub    %ecx,%eax
  402a8e:	75 0a                	jne    402a9a <submitr+0x6e6>
  402a90:	0f b6 43 03          	movzbl 0x3(%rbx),%eax
  402a94:	f7 d8                	neg    %eax
  402a96:	eb 02                	jmp    402a9a <submitr+0x6e6>
  402a98:	89 d0                	mov    %edx,%eax
  402a9a:	85 c0                	test   %eax,%eax
  402a9c:	74 38                	je     402ad6 <submitr+0x722>
  402a9e:	bf e0 41 40 00       	mov    $0x4041e0,%edi
  402aa3:	b9 05 00 00 00       	mov    $0x5,%ecx
  402aa8:	48 89 de             	mov    %rbx,%rsi
  402aab:	f3 a6                	repz cmpsb %es:(%rdi),%ds:(%rsi)
  402aad:	0f 97 c1             	seta   %cl
  402ab0:	0f 92 c0             	setb   %al
  402ab3:	38 c1                	cmp    %al,%cl
  402ab5:	74 26                	je     402add <submitr+0x729>
  402ab7:	85 d2                	test   %edx,%edx
  402ab9:	75 10                	jne    402acb <submitr+0x717>
  402abb:	0f b6 43 01          	movzbl 0x1(%rbx),%eax
  402abf:	b2 4b                	mov    $0x4b,%dl
  402ac1:	29 c2                	sub    %eax,%edx
  402ac3:	75 06                	jne    402acb <submitr+0x717>
  402ac5:	0f b6 53 02          	movzbl 0x2(%rbx),%edx
  402ac9:	f7 da                	neg    %edx
  402acb:	85 d2                	test   %edx,%edx
  402acd:	75 15                	jne    402ae4 <submitr+0x730>
  402acf:	b8 00 00 00 00       	mov    $0x0,%eax
  402ad4:	eb 13                	jmp    402ae9 <submitr+0x735>
  402ad6:	b8 00 00 00 00       	mov    $0x0,%eax
  402adb:	eb 0c                	jmp    402ae9 <submitr+0x735>
  402add:	b8 00 00 00 00       	mov    $0x0,%eax
  402ae2:	eb 05                	jmp    402ae9 <submitr+0x735>
  402ae4:	b8 ff ff ff ff       	mov    $0xffffffff,%eax
  402ae9:	48 8b 9c 24 58 a0 00 	mov    0xa058(%rsp),%rbx
  402af0:	00 
  402af1:	64 48 33 1c 25 28 00 	xor    %fs:0x28,%rbx
  402af8:	00 00 
  402afa:	74 05                	je     402b01 <submitr+0x74d>
  402afc:	e8 ff e1 ff ff       	callq  400d00 <__stack_chk_fail@plt>
  402b01:	48 81 c4 68 a0 00 00 	add    $0xa068,%rsp
  402b08:	5b                   	pop    %rbx
  402b09:	5d                   	pop    %rbp
  402b0a:	41 5c                	pop    %r12
  402b0c:	41 5d                	pop    %r13
  402b0e:	41 5e                	pop    %r14
  402b10:	41 5f                	pop    %r15
  402b12:	c3                   	retq   

0000000000402b13 <init_timeout>:
  402b13:	53                   	push   %rbx
  402b14:	89 fb                	mov    %edi,%ebx
  402b16:	85 ff                	test   %edi,%edi
  402b18:	74 1f                	je     402b39 <init_timeout+0x26>
  402b1a:	85 ff                	test   %edi,%edi
  402b1c:	79 05                	jns    402b23 <init_timeout+0x10>
  402b1e:	bb 00 00 00 00       	mov    $0x0,%ebx
  402b23:	be 12 21 40 00       	mov    $0x402112,%esi
  402b28:	bf 0e 00 00 00       	mov    $0xe,%edi
  402b2d:	e8 3e e2 ff ff       	callq  400d70 <signal@plt>
  402b32:	89 df                	mov    %ebx,%edi
  402b34:	e8 f7 e1 ff ff       	callq  400d30 <alarm@plt>
  402b39:	5b                   	pop    %rbx
  402b3a:	c3                   	retq   

0000000000402b3b <init_driver>:
  402b3b:	55                   	push   %rbp
  402b3c:	53                   	push   %rbx
  402b3d:	48 83 ec 28          	sub    $0x28,%rsp
  402b41:	48 89 fd             	mov    %rdi,%rbp
  402b44:	64 48 8b 04 25 28 00 	mov    %fs:0x28,%rax
  402b4b:	00 00 
  402b4d:	48 89 44 24 18       	mov    %rax,0x18(%rsp)
  402b52:	31 c0                	xor    %eax,%eax
  402b54:	be 01 00 00 00       	mov    $0x1,%esi
  402b59:	bf 0d 00 00 00       	mov    $0xd,%edi
  402b5e:	e8 0d e2 ff ff       	callq  400d70 <signal@plt>
  402b63:	be 01 00 00 00       	mov    $0x1,%esi
  402b68:	bf 1d 00 00 00       	mov    $0x1d,%edi
  402b6d:	e8 fe e1 ff ff       	callq  400d70 <signal@plt>
  402b72:	be 01 00 00 00       	mov    $0x1,%esi
  402b77:	bf 1d 00 00 00       	mov    $0x1d,%edi
  402b7c:	e8 ef e1 ff ff       	callq  400d70 <signal@plt>
  402b81:	ba 00 00 00 00       	mov    $0x0,%edx
  402b86:	be 01 00 00 00       	mov    $0x1,%esi
  402b8b:	bf 02 00 00 00       	mov    $0x2,%edi
  402b90:	e8 1b e3 ff ff       	callq  400eb0 <socket@plt>
  402b95:	89 c3                	mov    %eax,%ebx
  402b97:	85 c0                	test   %eax,%eax
  402b99:	79 4f                	jns    402bea <init_driver+0xaf>
  402b9b:	48 b8 45 72 72 6f 72 	movabs $0x43203a726f727245,%rax
  402ba2:	3a 20 43 
  402ba5:	48 89 45 00          	mov    %rax,0x0(%rbp)
  402ba9:	48 b8 6c 69 65 6e 74 	movabs $0x6e7520746e65696c,%rax
  402bb0:	20 75 6e 
  402bb3:	48 89 45 08          	mov    %rax,0x8(%rbp)
  402bb7:	48 b8 61 62 6c 65 20 	movabs $0x206f7420656c6261,%rax
  402bbe:	74 6f 20 
  402bc1:	48 89 45 10          	mov    %rax,0x10(%rbp)
  402bc5:	48 b8 63 72 65 61 74 	movabs $0x7320657461657263,%rax
  402bcc:	65 20 73 
  402bcf:	48 89 45 18          	mov    %rax,0x18(%rbp)
  402bd3:	c7 45 20 6f 63 6b 65 	movl   $0x656b636f,0x20(%rbp)
  402bda:	66 c7 45 24 74 00    	movw   $0x74,0x24(%rbp)
  402be0:	b8 ff ff ff ff       	mov    $0xffffffff,%eax
  402be5:	e9 28 01 00 00       	jmpq   402d12 <init_driver+0x1d7>
  402bea:	bf 96 31 40 00       	mov    $0x403196,%edi
  402bef:	e8 8c e1 ff ff       	callq  400d80 <gethostbyname@plt>
  402bf4:	48 85 c0             	test   %rax,%rax
  402bf7:	75 68                	jne    402c61 <init_driver+0x126>
  402bf9:	48 b8 45 72 72 6f 72 	movabs $0x44203a726f727245,%rax
  402c00:	3a 20 44 
  402c03:	48 89 45 00          	mov    %rax,0x0(%rbp)
  402c07:	48 b8 4e 53 20 69 73 	movabs $0x6e7520736920534e,%rax
  402c0e:	20 75 6e 
  402c11:	48 89 45 08          	mov    %rax,0x8(%rbp)
  402c15:	48 b8 61 62 6c 65 20 	movabs $0x206f7420656c6261,%rax
  402c1c:	74 6f 20 
  402c1f:	48 89 45 10          	mov    %rax,0x10(%rbp)
  402c23:	48 b8 72 65 73 6f 6c 	movabs $0x2065766c6f736572,%rax
  402c2a:	76 65 20 
  402c2d:	48 89 45 18          	mov    %rax,0x18(%rbp)
  402c31:	48 b8 73 65 72 76 65 	movabs $0x6120726576726573,%rax
  402c38:	72 20 61 
  402c3b:	48 89 45 20          	mov    %rax,0x20(%rbp)
  402c3f:	c7 45 28 64 64 72 65 	movl   $0x65726464,0x28(%rbp)
  402c46:	66 c7 45 2c 73 73    	movw   $0x7373,0x2c(%rbp)
  402c4c:	c6 45 2e 00          	movb   $0x0,0x2e(%rbp)
  402c50:	89 df                	mov    %ebx,%edi
  402c52:	e8 e9 e0 ff ff       	callq  400d40 <close@plt>
  402c57:	b8 ff ff ff ff       	mov    $0xffffffff,%eax
  402c5c:	e9 b1 00 00 00       	jmpq   402d12 <init_driver+0x1d7>
  402c61:	48 c7 04 24 00 00 00 	movq   $0x0,(%rsp)
  402c68:	00 
  402c69:	48 c7 44 24 08 00 00 	movq   $0x0,0x8(%rsp)
  402c70:	00 00 
  402c72:	66 c7 04 24 02 00    	movw   $0x2,(%rsp)
  402c78:	48 63 50 14          	movslq 0x14(%rax),%rdx
  402c7c:	48 8b 40 18          	mov    0x18(%rax),%rax
  402c80:	48 8b 30             	mov    (%rax),%rsi
  402c83:	48 8d 7c 24 04       	lea    0x4(%rsp),%rdi
  402c88:	b9 0c 00 00 00       	mov    $0xc,%ecx
  402c8d:	e8 fe e0 ff ff       	callq  400d90 <__memmove_chk@plt>
  402c92:	66 c7 44 24 02 3c 9a 	movw   $0x9a3c,0x2(%rsp)
  402c99:	ba 10 00 00 00       	mov    $0x10,%edx
  402c9e:	48 89 e6             	mov    %rsp,%rsi
  402ca1:	89 df                	mov    %ebx,%edi
  402ca3:	e8 d8 e1 ff ff       	callq  400e80 <connect@plt>
  402ca8:	85 c0                	test   %eax,%eax
  402caa:	79 50                	jns    402cfc <init_driver+0x1c1>
  402cac:	48 b8 45 72 72 6f 72 	movabs $0x55203a726f727245,%rax
  402cb3:	3a 20 55 
  402cb6:	48 89 45 00          	mov    %rax,0x0(%rbp)
  402cba:	48 b8 6e 61 62 6c 65 	movabs $0x6f7420656c62616e,%rax
  402cc1:	20 74 6f 
  402cc4:	48 89 45 08          	mov    %rax,0x8(%rbp)
  402cc8:	48 b8 20 63 6f 6e 6e 	movabs $0x7463656e6e6f6320,%rax
  402ccf:	65 63 74 
  402cd2:	48 89 45 10          	mov    %rax,0x10(%rbp)
  402cd6:	48 b8 20 74 6f 20 73 	movabs $0x76726573206f7420,%rax
  402cdd:	65 72 76 
  402ce0:	48 89 45 18          	mov    %rax,0x18(%rbp)
  402ce4:	66 c7 45 20 65 72    	movw   $0x7265,0x20(%rbp)
  402cea:	c6 45 22 00          	movb   $0x0,0x22(%rbp)
  402cee:	89 df                	mov    %ebx,%edi
  402cf0:	e8 4b e0 ff ff       	callq  400d40 <close@plt>
  402cf5:	b8 ff ff ff ff       	mov    $0xffffffff,%eax
  402cfa:	eb 16                	jmp    402d12 <init_driver+0x1d7>
  402cfc:	89 df                	mov    %ebx,%edi
  402cfe:	e8 3d e0 ff ff       	callq  400d40 <close@plt>
  402d03:	66 c7 45 00 4f 4b    	movw   $0x4b4f,0x0(%rbp)
  402d09:	c6 45 02 00          	movb   $0x0,0x2(%rbp)
  402d0d:	b8 00 00 00 00       	mov    $0x0,%eax
  402d12:	48 8b 4c 24 18       	mov    0x18(%rsp),%rcx
  402d17:	64 48 33 0c 25 28 00 	xor    %fs:0x28,%rcx
  402d1e:	00 00 
  402d20:	74 05                	je     402d27 <init_driver+0x1ec>
  402d22:	e8 d9 df ff ff       	callq  400d00 <__stack_chk_fail@plt>
  402d27:	48 83 c4 28          	add    $0x28,%rsp
  402d2b:	5b                   	pop    %rbx
  402d2c:	5d                   	pop    %rbp
  402d2d:	c3                   	retq   

0000000000402d2e <driver_post>:
  402d2e:	53                   	push   %rbx
  402d2f:	48 83 ec 10          	sub    $0x10,%rsp
  402d33:	4c 89 cb             	mov    %r9,%rbx
  402d36:	45 85 c0             	test   %r8d,%r8d
  402d39:	74 27                	je     402d62 <driver_post+0x34>
  402d3b:	48 89 ca             	mov    %rcx,%rdx
  402d3e:	be e5 41 40 00       	mov    $0x4041e5,%esi
  402d43:	bf 01 00 00 00       	mov    $0x1,%edi
  402d48:	b8 00 00 00 00       	mov    $0x0,%eax
  402d4d:	e8 ce e0 ff ff       	callq  400e20 <__printf_chk@plt>
  402d52:	66 c7 03 4f 4b       	movw   $0x4b4f,(%rbx)
  402d57:	c6 43 02 00          	movb   $0x0,0x2(%rbx)
  402d5b:	b8 00 00 00 00       	mov    $0x0,%eax
  402d60:	eb 39                	jmp    402d9b <driver_post+0x6d>
  402d62:	48 85 ff             	test   %rdi,%rdi
  402d65:	74 26                	je     402d8d <driver_post+0x5f>
  402d67:	80 3f 00             	cmpb   $0x0,(%rdi)
  402d6a:	74 21                	je     402d8d <driver_post+0x5f>
  402d6c:	4c 89 0c 24          	mov    %r9,(%rsp)
  402d70:	49 89 c9             	mov    %rcx,%r9
  402d73:	49 89 d0             	mov    %rdx,%r8
  402d76:	48 89 f9             	mov    %rdi,%rcx
  402d79:	48 89 f2             	mov    %rsi,%rdx
  402d7c:	be 9a 3c 00 00       	mov    $0x3c9a,%esi
  402d81:	bf 96 31 40 00       	mov    $0x403196,%edi
  402d86:	e8 29 f6 ff ff       	callq  4023b4 <submitr>
  402d8b:	eb 0e                	jmp    402d9b <driver_post+0x6d>
  402d8d:	66 c7 03 4f 4b       	movw   $0x4b4f,(%rbx)
  402d92:	c6 43 02 00          	movb   $0x0,0x2(%rbx)
  402d96:	b8 00 00 00 00       	mov    $0x0,%eax
  402d9b:	48 83 c4 10          	add    $0x10,%rsp
  402d9f:	5b                   	pop    %rbx
  402da0:	c3                   	retq   

0000000000402da1 <check>:
  402da1:	89 f8                	mov    %edi,%eax
  402da3:	c1 e8 1c             	shr    $0x1c,%eax
  402da6:	85 c0                	test   %eax,%eax
  402da8:	74 1d                	je     402dc7 <check+0x26>
  402daa:	b9 00 00 00 00       	mov    $0x0,%ecx
  402daf:	eb 0b                	jmp    402dbc <check+0x1b>
  402db1:	89 f8                	mov    %edi,%eax
  402db3:	d3 e8                	shr    %cl,%eax
  402db5:	3c 0a                	cmp    $0xa,%al
  402db7:	74 14                	je     402dcd <check+0x2c>
  402db9:	83 c1 08             	add    $0x8,%ecx
  402dbc:	83 f9 1f             	cmp    $0x1f,%ecx
  402dbf:	7e f0                	jle    402db1 <check+0x10>
  402dc1:	b8 01 00 00 00       	mov    $0x1,%eax
  402dc6:	c3                   	retq   
  402dc7:	b8 00 00 00 00       	mov    $0x0,%eax
  402dcc:	c3                   	retq   
  402dcd:	b8 00 00 00 00       	mov    $0x0,%eax
  402dd2:	c3                   	retq   

0000000000402dd3 <gencookie>:
  402dd3:	53                   	push   %rbx
  402dd4:	83 c7 01             	add    $0x1,%edi
  402dd7:	e8 d4 de ff ff       	callq  400cb0 <srandom@plt>
  402ddc:	e8 ff df ff ff       	callq  400de0 <random@plt>
  402de1:	89 c3                	mov    %eax,%ebx
  402de3:	89 c7                	mov    %eax,%edi
  402de5:	e8 b7 ff ff ff       	callq  402da1 <check>
  402dea:	85 c0                	test   %eax,%eax
  402dec:	74 ee                	je     402ddc <gencookie+0x9>
  402dee:	89 d8                	mov    %ebx,%eax
  402df0:	5b                   	pop    %rbx
  402df1:	c3                   	retq   
  402df2:	66 2e 0f 1f 84 00 00 	nopw   %cs:0x0(%rax,%rax,1)
  402df9:	00 00 00 
  402dfc:	0f 1f 40 00          	nopl   0x0(%rax)

0000000000402e00 <__libc_csu_init>:
  402e00:	41 57                	push   %r15
  402e02:	41 89 ff             	mov    %edi,%r15d
  402e05:	41 56                	push   %r14
  402e07:	49 89 f6             	mov    %rsi,%r14
  402e0a:	41 55                	push   %r13
  402e0c:	49 89 d5             	mov    %rdx,%r13
  402e0f:	41 54                	push   %r12
  402e11:	4c 8d 25 f8 1f 20 00 	lea    0x201ff8(%rip),%r12        # 604e10 <__frame_dummy_init_array_entry>
  402e18:	55                   	push   %rbp
  402e19:	48 8d 2d f8 1f 20 00 	lea    0x201ff8(%rip),%rbp        # 604e18 <__init_array_end>
  402e20:	53                   	push   %rbx
  402e21:	4c 29 e5             	sub    %r12,%rbp
  402e24:	31 db                	xor    %ebx,%ebx
  402e26:	48 c1 fd 03          	sar    $0x3,%rbp
  402e2a:	48 83 ec 08          	sub    $0x8,%rsp
  402e2e:	e8 2d de ff ff       	callq  400c60 <_init>
  402e33:	48 85 ed             	test   %rbp,%rbp
  402e36:	74 1e                	je     402e56 <__libc_csu_init+0x56>
  402e38:	0f 1f 84 00 00 00 00 	nopl   0x0(%rax,%rax,1)
  402e3f:	00 
  402e40:	4c 89 ea             	mov    %r13,%rdx
  402e43:	4c 89 f6             	mov    %r14,%rsi
  402e46:	44 89 ff             	mov    %r15d,%edi
  402e49:	41 ff 14 dc          	callq  *(%r12,%rbx,8)
  402e4d:	48 83 c3 01          	add    $0x1,%rbx
  402e51:	48 39 eb             	cmp    %rbp,%rbx
  402e54:	75 ea                	jne    402e40 <__libc_csu_init+0x40>
  402e56:	48 83 c4 08          	add    $0x8,%rsp
  402e5a:	5b                   	pop    %rbx
  402e5b:	5d                   	pop    %rbp
  402e5c:	41 5c                	pop    %r12
  402e5e:	41 5d                	pop    %r13
  402e60:	41 5e                	pop    %r14
  402e62:	41 5f                	pop    %r15
  402e64:	c3                   	retq   
  402e65:	66 66 2e 0f 1f 84 00 	data32 nopw %cs:0x0(%rax,%rax,1)
  402e6c:	00 00 00 00 

0000000000402e70 <__libc_csu_fini>:
  402e70:	f3 c3                	repz retq 

Disassembly of section .fini:

0000000000402e74 <_fini>:
  402e74:	48 83 ec 08          	sub    $0x8,%rsp
  402e78:	48 83 c4 08          	add    $0x8,%rsp
  402e7c:	c3                   	retq   
